L251 LINKER/LOCATER V4.66.93.0                                                          06/25/2023  18:36:41  PAGE 1


L251 LINKER/LOCATER V4.66.93.0, INVOKED BY:
D:\KEIL\KEIL251\C251\BIN\L251.EXE .\Out_File\board.obj, .\Out_File\common.obj, .\Out_File\zf_adc.obj, .\Out_File\zf_dela
>> y.obj, .\Out_File\zf_eeprom.obj, .\Out_File\zf_exti.obj, .\Out_File\zf_gpio.obj, .\Out_File\zf_iic.obj, .\Out_File\zf
>> _nvic.obj, .\Out_File\zf_pwm.obj, .\Out_File\zf_spi.obj, .\Out_File\zf_tim.obj, .\Out_File\zf_uart.obj, .\Out_File\zf
>> _fifo.obj, .\Out_File\zf__DMA.obj, .\Out_File\SEEKFREE_ABSOLUTE_ENCODER.obj, .\Out_File\SEEKFREE_AT24C02.obj, .\Out_F
>> ile\SEEKFREE_BLUETOOTH_CH9141.obj, ..\..\Libraries\seekfree_peripheral\SEEKFREE_CONFIG.LIB, .\Out_File\SEEKFREE_DL1A.
>> obj, .\Out_File\SEEKFREE_FONT.obj, .\Out_File\SEEKFREE_ICM20602.obj, .\Out_File\SEEKFREE_IMU660RA.obj, .\Out_File\SEE
>> KFREE_IMU963RA.obj, .\Out_File\SEEKFREE_MPU6050.obj, .\Out_File\SEEKFREE_PRINTF.obj, .\Out_File\SEEKFREE_TSL1401.obj,
>>  .\Out_File\SEEKFREE_VIRSCO.obj, .\Out_File\SEEKFREE_WIRELESS.obj, .\Out_File\SEEKFREE_WIRELESS_CH573.obj, .\Out_File
>> \SEEKFREE_IPS114_SPI.obj, .\Out_File\adc.obj, .\Out_File\allinit.obj, .\Out_File\encoder.obj, .\Out_File\isr.obj, .\O
>> ut_File\main.obj, .\Out_File\motor.obj, .\Out_File\oled.obj, .\Out_File\PID.obj, .\Out_File\PWM.obj TO .\Out_File\SEE
>> KFREE PRINT (.\Out_File\SEEKFREE.map) CASE DISABLEWARNING (16, 57) REMOVEUNUSED CLASSES (EDATA (0X0-0XFFF), HDATA (0X
>> 0-0XFFF))


CPU MODE:     251 SOURCE MODE
INTR FRAME:   4 BYTES SAVED ON INTERRUPT
MEMORY MODEL: XSMALL WITH FLOATING POINT ARITHMETIC


INPUT MODULES INCLUDED:
  .\Out_File\board.obj (board)
         COMMENT TYPE 0: C251 V5.60.0
  .\Out_File\common.obj (common)
         COMMENT TYPE 0: C251 V5.60.0
  .\Out_File\zf_adc.obj (zf_adc)
         COMMENT TYPE 0: C251 V5.60.0
  .\Out_File\zf_delay.obj (zf_delay)
         COMMENT TYPE 0: C251 V5.60.0
  .\Out_File\zf_eeprom.obj (zf_eeprom)
         COMMENT TYPE 0: C251 V5.60.0
  .\Out_File\zf_exti.obj (zf_exti)
         COMMENT TYPE 0: C251 V5.60.0
  .\Out_File\zf_gpio.obj (zf_gpio)
         COMMENT TYPE 0: C251 V5.60.0
  .\Out_File\zf_iic.obj (zf_iic)
         COMMENT TYPE 0: C251 V5.60.0
  .\Out_File\zf_nvic.obj (zf_nvic)
         COMMENT TYPE 0: C251 V5.60.0
  .\Out_File\zf_pwm.obj (zf_pwm)
         COMMENT TYPE 0: C251 V5.60.0
  .\Out_File\zf_spi.obj (zf_spi)
         COMMENT TYPE 0: C251 V5.60.0
  .\Out_File\zf_tim.obj (zf_tim)
         COMMENT TYPE 0: C251 V5.60.0
  .\Out_File\zf_uart.obj (zf_uart)
         COMMENT TYPE 0: C251 V5.60.0
  .\Out_File\zf_fifo.obj (zf_fifo)
         COMMENT TYPE 0: C251 V5.60.0
  .\Out_File\zf__DMA.obj (zf__DMA)
         COMMENT TYPE 0: C251 V5.60.0
  .\Out_File\SEEKFREE_ABSOLUTE_ENCODER.obj (SEEKFREE_ABSOLUTE_ENCODER)
         COMMENT TYPE 0: C251 V5.60.0
  .\Out_File\SEEKFREE_AT24C02.obj (SEEKFREE_AT24C02)
         COMMENT TYPE 0: C251 V5.60.0
  .\Out_File\SEEKFREE_BLUETOOTH_CH9141.obj (SEEKFREE_BLUETOOTH_CH9141)
         COMMENT TYPE 0: C251 V5.60.0
  .\Out_File\SEEKFREE_DL1A.obj (SEEKFREE_DL1A)
         COMMENT TYPE 0: C251 V5.60.0
  .\Out_File\SEEKFREE_FONT.obj (SEEKFREE_FONT)
         COMMENT TYPE 0: C251 V5.60.0
  .\Out_File\SEEKFREE_ICM20602.obj (SEEKFREE_ICM20602)
         COMMENT TYPE 0: C251 V5.60.0
  .\Out_File\SEEKFREE_IMU660RA.obj (SEEKFREE_IMU660RA)
         COMMENT TYPE 0: C251 V5.60.0
  .\Out_File\SEEKFREE_IMU963RA.obj (SEEKFREE_IMU963RA)
L251 LINKER/LOCATER V4.66.93.0                                                        06/25/2023  18:36:41  PAGE 2


         COMMENT TYPE 0: C251 V5.60.0
  .\Out_File\SEEKFREE_MPU6050.obj (SEEKFREE_MPU6050)
         COMMENT TYPE 0: C251 V5.60.0
  .\Out_File\SEEKFREE_PRINTF.obj (SEEKFREE_PRINTF)
         COMMENT TYPE 0: C251 V5.60.0
  .\Out_File\SEEKFREE_TSL1401.obj (SEEKFREE_TSL1401)
         COMMENT TYPE 0: C251 V5.60.0
  .\Out_File\SEEKFREE_VIRSCO.obj (SEEKFREE_VIRSCO)
         COMMENT TYPE 0: C251 V5.60.0
  .\Out_File\SEEKFREE_WIRELESS.obj (SEEKFREE_WIRELESS)
         COMMENT TYPE 0: C251 V5.60.0
  .\Out_File\SEEKFREE_WIRELESS_CH573.obj (SEEKFREE_WIRELESS_CH573)
         COMMENT TYPE 0: C251 V5.60.0
  .\Out_File\SEEKFREE_IPS114_SPI.obj (SEEKFREE_IPS114_SPI)
         COMMENT TYPE 0: C251 V5.60.0
  .\Out_File\adc.obj (adc)
         COMMENT TYPE 0: C251 V5.60.0
  .\Out_File\allinit.obj (allinit)
         COMMENT TYPE 0: C251 V5.60.0
  .\Out_File\encoder.obj (encoder)
         COMMENT TYPE 0: C251 V5.60.0
  .\Out_File\isr.obj (isr)
         COMMENT TYPE 0: C251 V5.60.0
  .\Out_File\main.obj (main)
         COMMENT TYPE 0: C251 V5.60.0
  .\Out_File\motor.obj (motor)
         COMMENT TYPE 0: C251 V5.60.0
  .\Out_File\oled.obj (oled)
         COMMENT TYPE 0: C251 V5.60.0
  .\Out_File\PID.obj (PID)
         COMMENT TYPE 0: C251 V5.60.0
  .\Out_File\PWM.obj (PWM)
         COMMENT TYPE 0: C251 V5.60.0
  ..\..\Libraries\seekfree_peripheral\SEEKFREE_CONFIG.LIB (SEEKFREE_CONFIG)
         COMMENT TYPE 0: C251 V5.60.0
  D:\KEIL\KEIL251\C251\LIB\C2SFPXS.LIB (?C?FPADD)
         COMMENT TYPE 0: A251 V4.69.6.0
  D:\KEIL\KEIL251\C251\LIB\C2SFPXS.LIB (?C?FPMUL)
         COMMENT TYPE 0: A251 V4.69.6.0
  D:\KEIL\KEIL251\C251\LIB\C2SFPXS.LIB (?C?FPDIV)
         COMMENT TYPE 0: A251 V4.69.6.0
  D:\KEIL\KEIL251\C251\LIB\C2SFPXS.LIB (?C?FPCMP)
         COMMENT TYPE 0: A251 V4.69.6.0
  D:\KEIL\KEIL251\C251\LIB\C2SFPXS.LIB (?C?FCAST)
         COMMENT TYPE 0: A251 V4.69.6.0
  D:\KEIL\KEIL251\C251\LIB\C2SFPXS.LIB (?C?CASTF)
         COMMENT TYPE 0: A251 V4.69.6.0
  D:\KEIL\KEIL251\C251\LIB\C2SFPXS.LIB (PRINTF)
         COMMENT TYPE 0: A251 V4.69.6.0
  D:\KEIL\KEIL251\C251\LIB\C2SFPXS.LIB (?C?FPGETOPN)
         COMMENT TYPE 0: A251 V4.69.6.0
  D:\KEIL\KEIL251\C251\LIB\C2SFPXS.LIB (?C?PRNFMT)
         COMMENT TYPE 0: A251 V4.69.6.0
  D:\KEIL\KEIL251\C251\LIB\C2SFPXS.LIB (?C?FPCONVERT)
         COMMENT TYPE 0: A251 V4.69.6.0
  D:\KEIL\KEIL251\C251\LIB\C2SFPXS.LIB (?C?FTNPWR)
         COMMENT TYPE 0: A251 V4.69.6.0
  D:\KEIL\KEIL251\C251\LIB\C2SXS.LIB (?C_START)
         COMMENT TYPE 0: A251 V4.69.6.0
  D:\KEIL\KEIL251\C251\LIB\C2SXS.LIB (?C?INITEDATA)
         COMMENT TYPE 0: A251 V4.69.6.0
  D:\KEIL\KEIL251\C251\LIB\C2SXS.LIB (?C?SIDIV)
         COMMENT TYPE 0: A251 V4.69.6.0
  D:\KEIL\KEIL251\C251\LIB\C2SXS.LIB (?C?LMUL)
         COMMENT TYPE 0: A251 V4.69.6.0
L251 LINKER/LOCATER V4.66.93.0                                                        06/25/2023  18:36:41  PAGE 3


  D:\KEIL\KEIL251\C251\LIB\C2SXS.LIB (?C?LIMUL)
         COMMENT TYPE 0: A251 V4.69.6.0
  D:\KEIL\KEIL251\C251\LIB\C2SXS.LIB (?C?ULDIV)
         COMMENT TYPE 0: A251 V4.69.6.0
  D:\KEIL\KEIL251\C251\LIB\C2SXS.LIB (?C?SLDIV)
         COMMENT TYPE 0: A251 V4.69.6.0
  D:\KEIL\KEIL251\C251\LIB\C2SXS.LIB (memcpy)
         COMMENT TYPE 0: C251 V5.58.7
  D:\KEIL\KEIL251\C251\LIB\C2SXS.LIB (memset)
         COMMENT TYPE 0: C251 V5.58.7
  D:\KEIL\KEIL251\C251\LIB\C2SXS.LIB (?C?INITEDATA_END)
         COMMENT TYPE 0: A251 V4.69.6.0


ACTIVE MEMORY CLASSES OF MODULE:  .\Out_File\SEEKFREE (board)

BASE        START       END         USED      MEMORY CLASS
==========================================================
000000H     000000H     000FFFH     0008FAH   EDATA
000000H     000000H     000FFFH               HDATA
FF0000H     FF0000H     FFFFFFH     008A41H   CODE
000000H     FF0000H     FFFFFFH     00067BH   HCONST
010000H     010000H     01FFFFH     00003CH   XDATA
000020H.0   000020H.0   00002FH.7   000000H.1 BIT
FF0000H     FF0000H     FFFFFFH     000004H   CONST
000000H     000000H     00007FH     000008H   DATA


MEMORY MAP OF MODULE:  .\Out_File\SEEKFREE (board)


START     STOP      LENGTH    ALIGN  RELOC    MEMORY CLASS   SEGMENT NAME
=========================================================================
000000H   000007H   000008H   ---    AT..     DATA           "REG BANK 0"
000008H   000019H   000012H   BYTE   UNIT     EDATA          ?ED?SEEKFREE_IMU963RA
00001AH   00001EH   000005H   BYTE   UNIT     EDATA          ?ED?ISR
00001FH.0 00001FH.7 000001H.0 ---    ---      **GAP**
000020H.0 000020H.0 000000H.1 BIT    UNIT     BIT            ?BI?ZF__DMA
000020H.1 000020H   000000H.7 ---    ---      **GAP**
000021H   0004A0H   000480H   BYTE   UNIT     EDATA          ?ED?OLED
0004A1H   0005A1H   000101H   BYTE   UNIT     EDATA          ?ED?SEEKFREE_TSL1401
0005A2H   00066EH   0000CDH   BYTE   UNIT     EDATA          ?ED?ZF_UART
00066FH   0006C5H   000057H   BYTE   UNIT     EDATA          _EDATA_GROUP_
0006C6H   00071AH   000055H   BYTE   UNIT     EDATA          ?ED?SEEKFREE_BLUETOOTH_CH9141
00071BH   00076FH   000055H   BYTE   UNIT     EDATA          ?ED?SEEKFREE_WIRELESS
000770H   0007C4H   000055H   BYTE   UNIT     EDATA          ?ED?SEEKFREE_WIRELESS_CH573
0007C5H   0007D0H   00000CH   BYTE   UNIT     EDATA          ?ED?SEEKFREE_ICM20602
0007D1H   0007DCH   00000CH   BYTE   UNIT     EDATA          ?ED?SEEKFREE_IMU660RA
0007DDH   0007E8H   00000CH   BYTE   UNIT     EDATA          ?ED?SEEKFREE_MPU6050
0007E9H   0007F2H   00000AH   BYTE   UNIT     EDATA          ?ED?SEEKFREE_VIRSCO
0007F3H   0007F6H   000004H   BYTE   UNIT     EDATA          ?ED?BOARD
0007F7H   0007FAH   000004H   BYTE   UNIT     EDATA          ?ED?ZF_DELAY
0007FBH   0007FEH   000004H   BYTE   UNIT     EDATA          ?ED?ENCODER
0007FFH   000801H   000003H   BYTE   UNIT     EDATA          ?ED?SEEKFREE_DL1A
000802H   000803H   000002H   BYTE   UNIT     EDATA          ?ED?COMMON
000804H   000903H   000100H   BYTE   UNIT     EDATA          ?STACK
000904H   00FFFFH   00F6FCH   ---    ---      **GAP**
010000H   01003BH   00003CH   BYTE   INSEG    XDATA          ?XD?ZF__DMA
01003CH   FEFFFFH   FDFFC4H   ---    ---      **GAP**
FF0000H   FF0002H   000003H   ---    OFFS..   CODE           ?CO?start251?4
FF0003H   FF0005H   000003H   ---    OFFS..   CODE           ?PR?IV?0
FF0006H   FF0009H   000004H   BYTE   INSEG    CODE           ?PR?INT2_ISR?ISR
FF000AH   FF000AH   000001H   BYTE   INSEG    CODE           ?PR?INT1_ISR?ISR
FF000BH   FF000DH   000003H   ---    OFFS..   CODE           ?PR?IV?1
FF000EH   FF0011H   000004H   BYTE   INSEG    CODE           ?PR?INT3_ISR?ISR
L251 LINKER/LOCATER V4.66.93.0                                                        06/25/2023  18:36:41  PAGE 4


FF0012H   FF0012H   000001H   BYTE   INSEG    CODE           ?PR?TM0_ISR?ISR
FF0013H   FF0015H   000003H   ---    OFFS..   CODE           ?PR?IV?2
FF0016H   FF0019H   000004H   BYTE   INSEG    CODE           ?PR?INT4_ISR?ISR
FF001AH   FF001AH   000001H   BYTE   INSEG    CODE           ?PR?TM1_ISR?ISR
FF001BH   FF001DH   000003H   ---    OFFS..   CODE           ?PR?IV?3
FF001EH   FF0021H   000004H   BYTE   INSEG    CODE           ?PR?TM2_ISR?ISR
FF0022H   FF0022H   000001H   ---    ---      **GAP**
FF0023H   FF0025H   000003H   ---    OFFS..   CODE           ?PR?IV?4
FF0026H   FF0041H   00001CH   BYTE   INSEG    CODE           ?PR?DL1A_SCCB_WAITACK?SEEKFREE_DL1A
FF0042H   FF0042H   000001H   ---    ---      **GAP**
FF0043H   FF0045H   000003H   ---    OFFS..   CODE           ?PR?IV?8
FF0046H   FF0052H   00000DH   BYTE   INSEG    CODE           ?PR?DL1A_SIMIIC_DELAY?SEEKFREE_DL1A
FF0053H   FF0055H   000003H   ---    OFFS..   CODE           ?PR?IV?10
FF0056H   FF0059H   000004H   BYTE   INSEG    CODE           ?PR?TM3_ISR?ISR
FF005AH   FF005AH   000001H   ---    ---      **GAP**
FF005BH   FF005DH   000003H   ---    OFFS..   CODE           ?PR?IV?11
FF005EH   FF0060H   000003H   BYTE   INSEG    CODE           ?PR?ENABLEGLOBALIRQ?BOARD
FF0061H   FF0062H   000002H   BYTE   UNIT     HCONST         ?HC?ADC
FF0063H   FF0065H   000003H   ---    OFFS..   CODE           ?PR?IV?12
FF0066H   FF0068H   000003H   BYTE   INSEG    CODE           ?PR?DISABLEGLOBALIRQ?BOARD
FF0069H   FF006AH   000002H   ---    ---      **GAP**
FF006BH   FF006DH   000003H   ---    OFFS..   CODE           ?PR?IV?13
FF006EH   FF0082H   000015H   BYTE   INSEG    CODE           ?PR?OLED_DISPLAY_ON?OLED
FF0083H   FF0085H   000003H   ---    OFFS..   CODE           ?PR?IV?16
FF0086H   FF0088H   000003H   BYTE   INSEG    CODE           ?PR?PIT_HANDLER?MAIN
FF0089H   FF008AH   000002H   ---    ---      **GAP**
FF008BH   FF008DH   000003H   ---    OFFS..   CODE           ?PR?IV?17
FF008EH   FF0091H   000004H   BYTE   UNIT     CONST          ?CO?PRINTF
FF0092H   FF0092H   000001H   ---    ---      **GAP**
FF0093H   FF0095H   000003H   ---    OFFS..   CODE           ?PR?IV?18
FF0096H   FF009AH   000005H   ---    ---      **GAP**
FF009BH   FF009DH   000003H   ---    OFFS..   CODE           ?PR?IV?19
FF009EH   FF00A2H   000005H   ---    ---      **GAP**
FF00A3H   FF00A5H   000003H   ---    OFFS..   CODE           ?PR?IV?20
FF00A6H   FF2C9DH   002BF8H   BYTE   UNIT     CODE           ?CO?OLED
FF2C9EH   FF4C9DH   002000H   BYTE   UNIT     CODE           ?CO?SEEKFREE_CONFIG
FF4C9EH   FF5AE5H   000E48H   BYTE   UNIT     CODE           ?CO?SEEKFREE_FONT
FF5AE6H   FF6480H   00099BH   BYTE   UNIT     CODE           ?C?LIB_CODE
FF6481H   FF6A9BH   00061BH   BYTE   INSEG    CODE           ?PR?DL1A_INIT?SEEKFREE_DL1A
FF6A9CH   FF6E92H   0003F7H   BYTE   INSEG    CODE           ?PR?GPIO_MODE?ZF_GPIO
FF6E93H   FF718EH   0002FCH   BYTE   INSEG    CODE           ?PR?PWM_INIT?ZF_PWM
FF718FH   FF742FH   0002A1H   BYTE   INSEG    CODE           ?PR?PWM_SET_GPIO?ZF_PWM
FF7430H   FF75EEH   0001BFH   BYTE   INSEG    CODE           ?PR?UART_INIT?ZF_UART
FF75EFH   FF776AH   00017CH   BYTE   INSEG    CODE           ?PR?DL1A_GET_SPAD_INFO?SEEKFREE_DL1A
FF776BH   FF788CH   000122H   BYTE   INSEG    CODE           ?PR?SET_CLK?BOARD
FF788DH   FF7975H   0000E9H   BYTE   INSEG    CODE           ?PR?SPI_INIT?ZF_SPI
FF7976H   FF7A5EH   0000E9H   BYTE   INSEG    CODE           ?PR?OLED_INIT?OLED
FF7A5FH   FF7B42H   0000E4H   BYTE   INSEG    CODE           ?PR?DL1A_SET_MEASUREMENT_TIMING_BUDGET?SEEKFREE_DL1A
FF7B43H   FF7C22H   0000E0H   BYTE   INSEG    CODE           ?PR?FIFO_WRITE_BUFFER?ZF_FIFO
FF7C23H   FF7CFDH   0000DBH   BYTE   INSEG    CODE           ?PR?DL1A_GET_SEQUENCE_STEP_TIMEOUTS?SEEKFREE_DL1A
FF7CFEH   FF7D95H   000098H   BYTE   INSEG    CODE           ?PR?ICM20602_INIT?SEEKFREE_ICM20602
FF7D96H   FF7E29H   000094H   BYTE   INSEG    CODE           ?PR?PIT_TIMER_MS?ZF_TIM
FF7E2AH   FF7EBAH   000091H   BYTE   INSEG    CODE           ?PR?BOARD_INIT?BOARD
FF7EBBH   FF7F45H   00008BH   BYTE   INSEG    CODE           ?PR?ALL_INIT?ALLINIT
FF7F46H   FF7FC1H   00007CH   BYTE   INSEG    CODE           ?PR?INT0_ISR?ISR
FF7FC2H   FF8038H   000077H   BYTE   INSEG    CODE           ?PR?DL1A_PERFORM_SINGLE_REF_CALIBRATION?SEEKFREE_DL1A
FF8039H   FF80ABH   000073H   BYTE   INSEG    CODE           ?PR?DL1A_GET_MEASUREMENT_TIMING_BUDGET?SEEKFREE_DL1A
FF80ACH   FF8110H   000065H   BYTE   INSEG    CODE           ?PR?UART4_ISR?ISR
FF8111H   FF8173H   000063H   BYTE   INSEG    CODE           ?PR?DMA_ADC_INILIZE?ZF__DMA
FF8174H   FF81D1H   00005EH   BYTE   INSEG    CODE           ?PR?ADC_INIT?ZF_ADC
FF81D2H   FF822EH   00005DH   BYTE   INSEG    CODE           ?PR?DL1A_GET_DISTANCE?SEEKFREE_DL1A
FF822FH   FF8286H   000058H   BYTE   INSEG    CODE           ?PR?DL1A_GET_SEQUENCE_STEP_ENABLES?SEEKFREE_DL1A
FF8287H   FF82DAH   000054H   BYTE   INSEG    CODE           ?PR?UART_PUTCHAR?ZF_UART
FF82DBH   FF832EH   000054H   BYTE   INSEG    CODE           ?PR?DL1A_SIMIIC_READ_REGS?SEEKFREE_DL1A
FF832FH   FF8382H   000054H   BYTE   INSEG    CODE           ?PR?DL1A_SIMIIC_READ_REGS_1?SEEKFREE_DL1A
L251 LINKER/LOCATER V4.66.93.0                                                        06/25/2023  18:36:41  PAGE 5


FF8383H   FF83CFH   00004DH   BYTE   INSEG    CODE           ?PR?DL1A_GET_VCSEL_PULSE_PERIOD?SEEKFREE_DL1A
FF83D0H   FF841BH   00004CH   BYTE   INSEG    CODE           ?PR?NVIC_DMA_ADC_INIT?ZF__DMA
FF841CH   FF8465H   00004AH   BYTE   INSEG    CODE           ?PR?CTIMER_COUNT_INIT?ZF_TIM
FF8466H   FF84A7H   000042H   BYTE   INSEG    CODE           ?PR?FIFO_HEAD_OFFSET?ZF_FIFO
FF84A8H   FF84BAH   000013H   BYTE   UNIT     CODE           ?C_C51STARTUP
FF84BBH   FF84BCH   000002H   BYTE   UNIT     CODE           ?C_C51STARTUP?1
FF84BDH   FF84E5H   000029H   BYTE   UNIT     CODE           ?C_C51STARTUP?2
FF84E6H   FF84E8H   000003H   BYTE   UNIT     CODE           ?C_C51STARTUP?3
FF84E9H   FF8528H   000040H   BYTE   INSEG    CODE           ?PR?OLED_REFRESH?OLED
FF8529H   FF8566H   00003EH   BYTE   INSEG    CODE           ?PR?DL1A_TIMEOUT_MCLKS_TO_MICROSECONDS?SEEKFREE_DL1A
FF8567H   FF85A3H   00003DH   BYTE   INSEG    CODE           ?PR?DMA_CONFIG?ZF__DMA
FF85A4H   FF85DFH   00003CH   BYTE   INSEG    CODE           ?PR?DL1A_TIMEOUT_MICROSECONDS_TO_MCLKS?SEEKFREE_DL1A
FF85E0H   FF861AH   00003BH   BYTE   INSEG    CODE           ?PR?DL1A_READ_CH?SEEKFREE_DL1A
FF861BH   FF8653H   000039H   BYTE   INSEG    CODE           ?PR?DELAY_INIT?ZF_DELAY
FF8654H   FF868CH   000039H   BYTE   INSEG    CODE           ?PR?UART1_ISR?ISR
FF868DH   FF86C3H   000037H   BYTE   INSEG    CODE           ?PR?MAIN?MAIN
FF86C4H   FF86F8H   000035H   BYTE   INSEG    CODE           ?PR?DL1A_SIMIIC_WRITE_DATS?SEEKFREE_DL1A
FF86F9H   FF872CH   000034H   BYTE   INSEG    CODE           ?PR?DL1A_ENCODE_TIMEOUT?SEEKFREE_DL1A
FF872DH   FF875BH   00002FH   BYTE   INSEG    CODE           ?PR?TM4_ISR?ISR
FF875CH   FF8789H   00002EH   BYTE   INSEG    CODE           ?PR?DL1A_SEND_CH?SEEKFREE_DL1A
FF878AH   FF87B6H   00002DH   BYTE   INSEG    CODE           ?PR?ICM20602_SELF_CHECK?SEEKFREE_ICM20602
FF87B7H   FF87E3H   00002DH   BYTE   INSEG    CODE           ?PR?USE_ADC_INIT?ADC
FF87E4H   FF880CH   000029H   BYTE   INSEG    CODE           ?PR?DL1A_SIMIIC_READ_REG?SEEKFREE_DL1A
FF880DH   FF8833H   000027H   BYTE   INSEG    CODE           ?PR?DL1A_SET_SIGNAL_RATE_LIMIT?SEEKFREE_DL1A
FF8834H   FF8858H   000025H   BYTE   INSEG    CODE           ?PR?MEMCPY?_?MEMCPY
FF8859H   FF887BH   000023H   BYTE   INSEG    CODE           ?PR?ICM20602_SIMSPI_WR_BYTE?SEEKFREE_ICM20602
FF887CH   FF889EH   000023H   BYTE   INSEG    CODE           ?PR?OLED_CLEAR?OLED
FF889FH   FF88C0H   000022H   BYTE   INSEG    CODE           ?PR?DL1A_SIMIIC_WRITE_REG?SEEKFREE_DL1A
FF88C1H   FF88E1H   000021H   BYTE   INSEG    CODE           ?PR?DMA_ISR_HANDLER?ISR
FF88E2H   FF8901H   000020H   BYTE   INSEG    CODE           ?PR?DL1A_SIMIIC_SENDACK?SEEKFREE_DL1A
FF8902H   FF891BH   00001AH   BYTE   INSEG    CODE           ?PR?UART2_ISR?ISR
FF891CH   FF8935H   00001AH   BYTE   INSEG    CODE           ?PR?UART3_ISR?ISR
FF8936H   FF894FH   00001AH   BYTE   INSEG    CODE           ?PR?OLED_WR_BYTE?OLED
FF8950H   FF8969H   00001AH   BYTE   INSEG    CODE           ?PR?MEMSET?_?MEMSET
FF896AH   FF8982H   000019H   BYTE   INSEG    CODE           ?PR?BLUETOOTH_CH9141_UART_CALLBACK?SEEKFREE_BLUETOOTH_CH91
                                                             -41
FF8983H   FF899BH   000019H   BYTE   INSEG    CODE           ?PR?WIRELESS_UART_CALLBACK?SEEKFREE_WIRELESS
FF899CH   FF89B4H   000019H   BYTE   INSEG    CODE           ?PR?WIRELESS_CH573_CALLBACK?SEEKFREE_WIRELESS_CH573
FF89B5H   FF89CCH   000018H   BYTE   INSEG    CODE           ?PR?ICM20602_SIMSPI_R_REG_BYTE?SEEKFREE_ICM20602
FF89CDH   FF89E3H   000017H   BYTE   INSEG    CODE           ?PR?DELAY_MS?ZF_DELAY
FF89E4H   FF89F5H   000012H   BYTE   INSEG    CODE           ?PR?ICM20602_READ_REGISTER?SEEKFREE_ICM20602
FF89F6H   FF8A06H   000011H   BYTE   INSEG    CODE           ?PR?DL1A_SIMIIC_STOP?SEEKFREE_DL1A
FF8A07H   FF8A16H   000010H   BYTE   INSEG    CODE           ?PR?DL1A_DECODE_TIMEOUT?SEEKFREE_DL1A
FF8A17H   FF8A25H   00000FH   BYTE   INSEG    CODE           ?PR?DL1A_SIMIIC_START?SEEKFREE_DL1A
FF8A26H   FF8A34H   00000FH   BYTE   INSEG    CODE           ?PR?ICM20602_SIMSPI_W_REG_BYTE?SEEKFREE_ICM20602
FF8A35H   FF8A42H   00000EH   BYTE   INSEG    CODE           ?PR?PUTCHAR?BOARD
FF8A43H   FF8A50H   00000EH   BYTE   INSEG    CODE           ?PR?SPI_MOSI?ZF_SPI
FF8A51H   FF8A58H   000008H   BYTE   INSEG    CODE           ?PR?ICM20602_WRITE_REGISTER?SEEKFREE_ICM20602
FF8A59H   FF8F64H   00050CH   BYTE   UNIT     HCONST         ?C_INITEDATA
FF8F65H   FF8FBCH   000058H   BYTE   UNIT     HCONST         ?HC?ZF_PWM
FF8FBDH   FF9007H   00004BH   BYTE   UNIT     HCONST         ?HC?SEEKFREE_IMU963RA
FF9008H   FF903BH   000034H   BYTE   UNIT     HCONST         ?HC?SEEKFREE_IMU660RA
FF903CH   FF906EH   000033H   BYTE   UNIT     HCONST         ?HC?SEEKFREE_ICM20602
FF906FH   FF9094H   000026H   BYTE   UNIT     HCONST         ?HC?ENCODER
FF9095H   FF90AAH   000016H   BYTE   UNIT     HCONST         ?HC?SEEKFREE_MPU6050
FF90ABH   FF90BDH   000013H   BYTE   UNIT     HCONST         ?HC?SEEKFREE_DL1A
FF90BEH   FF90CBH   00000EH   BYTE   UNIT     HCONST         ?HC?MAIN
FF90CCH   FF90D1H   000006H   BYTE   UNIT     HCONST         ?HC?SEEKFREE_IPS114_SPI

* * * * * * * * *   R E M O V E D     S E G M E N T S   * * * * * * * *
   *DEL*:           00002EH   BYTE   INSEG    CODE           ?PR?ADC_ONCE?ZF_ADC
   *DEL*:           000019H   BYTE   INSEG    CODE           ?PR?DELAY_US?ZF_DELAY
   *DEL*:           000016H   BYTE   INSEG    CODE           ?PR?IAP_SET_TPS?ZF_EEPROM
   *DEL*:           000015H   BYTE   INSEG    CODE           ?PR?EEPROM_TRIG?ZF_EEPROM
   *DEL*:           00000EH   BYTE   INSEG    CODE           ?PR?IAP_ERASE_PAGE?ZF_EEPROM
L251 LINKER/LOCATER V4.66.93.0                                                        06/25/2023  18:36:41  PAGE 6


   *DEL*:           000004H   BYTE   INSEG    CODE           ?PR?IAP_IDLE?ZF_EEPROM
   *DEL*:           000047H   BYTE   INSEG    CODE           ?PR?IAP_READ_BYTES?ZF_EEPROM
   *DEL*:           00006DH   BYTE   INSEG    CODE           ?PR?EXTERN_IAP_WRITE_BYTES?ZF_EEPROM
   *DEL*:           000006H   BYTE   INSEG    CODE           ?PR?IAP_INIT?ZF_EEPROM
   *DEL*:           000047H   BYTE   INSEG    CODE           ?PR?IAP_WRITE_BYTES?ZF_EEPROM
   *DEL*:           00000CH   BYTE   INSEG    CODE           ?PR?IAP_GET_CMD_STATE?ZF_EEPROM
   *DEL*:           000004H   BYTE   UNIT     EDATA          ?ED?IAP_READ_BYTES?ZF_EEPROM
   *DEL*:           000004H   BYTE   UNIT     EDATA          ?ED?IAP_WRITE_BYTES?ZF_EEPROM
   *DEL*:           000204H   BYTE   UNIT     EDATA          ?ED?EXTERN_IAP_WRITE_BYTES?ZF_EEPROM
   *DEL*:           00003EH   BYTE   INSEG    CODE           ?PR?EXIT_INIT?ZF_EXTI
   *DEL*:           00006EH   BYTE   INSEG    CODE           ?PR?GPIO_PULL_SET?ZF_GPIO
   *DEL*:           000017H   BYTE   INSEG    CODE           ?PR?SEND_DATA?ZF_IIC
   *DEL*:           00002FH   BYTE   INSEG    CODE           ?PR?IIC_CHANGE_PIN?ZF_IIC
   *DEL*:           00001CH   BYTE   INSEG    CODE           ?PR?RECV_DATA?ZF_IIC
   *DEL*:           000010H   BYTE   INSEG    CODE           ?PR?START?ZF_IIC
   *DEL*:           000045H   BYTE   INSEG    CODE           ?PR?WAIT?ZF_IIC
   *DEL*:           000018H   BYTE   INSEG    CODE           ?PR?SEND_ACK?ZF_IIC
   *DEL*:           000010H   BYTE   INSEG    CODE           ?PR?RECV_ACK?ZF_IIC
   *DEL*:           000010H   BYTE   INSEG    CODE           ?PR?STOP?ZF_IIC
   *DEL*:           000019H   BYTE   INSEG    CODE           ?PR?SEND_NAK?ZF_IIC
   *DEL*:           00005EH   BYTE   INSEG    CODE           ?PR?IIC_INIT?ZF_IIC
   *DEL*:           000075H   BYTE   INSEG    CODE           ?PR?IIC_READ_REG?ZF_IIC
   *DEL*:           00009CH   BYTE   INSEG    CODE           ?PR?IIC_READ_REG_BYTES?ZF_IIC
   *DEL*:           000060H   BYTE   INSEG    CODE           ?PR?IIC_WRITE_REG?ZF_IIC
   *DEL*:           000015H   BYTE   INSEG    CODE           ?PR?IIC_DELAY_US?ZF_IIC
   *DEL*:           000004H   BYTE   UNIT     EDATA          ?ED?IIC_INIT?ZF_IIC
   *DEL*:           000004H   BYTE   UNIT     EDATA          ?ED?IIC_READ_REG?ZF_IIC
   *DEL*:           000003H   BYTE   UNIT     EDATA          ?ED?IIC_READ_REG_BYTES?ZF_IIC
   *DEL*:           00006CH   BYTE   INSEG    CODE           ?PR?NVIC_SETPRIORITY?ZF_NVIC
   *DEL*:           0000C8H   BYTE   INSEG    CODE           ?PR?PWM_DUTY?ZF_PWM
   *DEL*:           000131H   BYTE   INSEG    CODE           ?PR?PWM_FREQ?ZF_PWM
   *DEL*:           000004H   BYTE   UNIT     EDATA          ?ED?PWM_FREQ?ZF_PWM
   *DEL*:           00001DH   BYTE   INSEG    CODE           ?PR?SPI_CHANGE_MODE?ZF_SPI
   *DEL*:           0000AEH   BYTE   INSEG    CODE           ?PR?SPI_CHANGE_PIN?ZF_SPI
   *DEL*:           00004DH   BYTE   INSEG    CODE           ?PR?CTIMER_COUNT_READ?ZF_TIM
   *DEL*:           000051H   BYTE   INSEG    CODE           ?PR?CTIMER_COUNT_CLEAN?ZF_TIM
   *DEL*:           00002DH   BYTE   INSEG    CODE           ?PR?UART_PUTBUFF?ZF_UART
   *DEL*:           00001EH   BYTE   INSEG    CODE           ?PR?UART_PUTSTR?ZF_UART
   *DEL*:           000004H   BYTE   UNIT     EDATA          ?ED?UART_PUTBUFF?ZF_UART
   *DEL*:           000002H   BYTE   UNIT     EDATA          ?ED?UART_PUTSTR?ZF_UART
   *DEL*:           000113H   BYTE   INSEG    CODE           ?PR?FIFO_READ_BUFFER?ZF_FIFO
   *DEL*:           000025H   BYTE   INSEG    CODE           ?PR?FIFO_CLEAR?ZF_FIFO
   *DEL*:           000046H   BYTE   INSEG    CODE           ?PR?FIFO_END_OFFSET?ZF_FIFO
   *DEL*:           000015H   BYTE   INSEG    CODE           ?PR?FIFO_USED?ZF_FIFO
   *DEL*:           000043H   BYTE   INSEG    CODE           ?PR?FIFO_INIT?ZF_FIFO
   *DEL*:           000004H   BYTE   UNIT     EDATA          ?ED?FIFO_INIT?ZF_FIFO
   *DEL*:           00000FH   BYTE   UNIT     EDATA          ?ED?FIFO_READ_BUFFER?ZF_FIFO
   *DEL*:           000011H   BYTE   INSEG    CODE           ?PR?ENCODER_SELF4_CHECK?SEEKFREE_ABSOLUTE_ENCODER
   *DEL*:           000011H   BYTE   INSEG    CODE           ?PR?ENCODER_SELF5_CHECK?SEEKFREE_ABSOLUTE_ENCODER
   *DEL*:           00002FH   BYTE   INSEG    CODE           ?PR?ENCODER_SPI_R_REG_BYTE?SEEKFREE_ABSOLUTE_ENCODER
   *DEL*:           000005H   BYTE   INSEG    CODE           ?PR?ENCODER_DELAY_US?SEEKFREE_ABSOLUTE_ENCODER
   *DEL*:           000038H   BYTE   INSEG    CODE           ?PR?ENCODER_SPI_W_REG_BYTE?SEEKFREE_ABSOLUTE_ENCODER
   *DEL*:           00001CH   BYTE   INSEG    CODE           ?PR?SIMSPI_R_REG_BYTE?SEEKFREE_ABSOLUTE_ENCODER
   *DEL*:           00001AH   BYTE   INSEG    CODE           ?PR?SIMSPI_W_REG_BYTE?SEEKFREE_ABSOLUTE_ENCODER
   *DEL*:           000029H   BYTE   INSEG    CODE           ?PR?ENCODER_INIT_SPI?SEEKFREE_ABSOLUTE_ENCODER
   *DEL*:           000004H   BYTE   INSEG    CODE           ?PR?SPI_WR_BYTE?SEEKFREE_ABSOLUTE_ENCODER
   *DEL*:           000024H   BYTE   INSEG    CODE           ?PR?SET_ZERO_POSITION_SIMSPI?SEEKFREE_ABSOLUTE_ENCODER
   *DEL*:           000023H   BYTE   INSEG    CODE           ?PR?ENCODER_ANGLE_SIMSPI?SEEKFREE_ABSOLUTE_ENCODER
   *DEL*:           00001CH   BYTE   INSEG    CODE           ?PR?SPI_R_REG_BYTE?SEEKFREE_ABSOLUTE_ENCODER
   *DEL*:           00001AH   BYTE   INSEG    CODE           ?PR?SPI_W_REG_BYTE?SEEKFREE_ABSOLUTE_ENCODER
   *DEL*:           00002FH   BYTE   INSEG    CODE           ?PR?ENCODER_SIMSPI_R_REG_BYTE?SEEKFREE_ABSOLUTE_ENCODER
   *DEL*:           000038H   BYTE   INSEG    CODE           ?PR?ENCODER_SIMSPI_W_REG_BYTE?SEEKFREE_ABSOLUTE_ENCODER
   *DEL*:           00000FH   BYTE   INSEG    CODE           ?PR?ENCODER_INIT_SIMSPI?SEEKFREE_ABSOLUTE_ENCODER
   *DEL*:           000024H   BYTE   INSEG    CODE           ?PR?SET_ZERO_POSITION_SPI?SEEKFREE_ABSOLUTE_ENCODER
   *DEL*:           00001FH   BYTE   INSEG    CODE           ?PR?SIMSPI_WR_BYTE?SEEKFREE_ABSOLUTE_ENCODER
L251 LINKER/LOCATER V4.66.93.0                                                        06/25/2023  18:36:41  PAGE 7


   *DEL*:           000023H   BYTE   INSEG    CODE           ?PR?ENCODER_ANGLE_SPI?SEEKFREE_ABSOLUTE_ENCODER
   *DEL*:           000001H   BYTE   UNIT     EDATA          ?ED?ENCODER_SELF4_CHECK?SEEKFREE_ABSOLUTE_ENCODER
   *DEL*:           000001H   BYTE   UNIT     EDATA          ?ED?ENCODER_SELF5_CHECK?SEEKFREE_ABSOLUTE_ENCODER
   *DEL*:           000029H   BYTE   INSEG    CODE           ?PR?AT24C02_SIMIIC_READ_REG?SEEKFREE_AT24C02
   *DEL*:           00005EH   BYTE   INSEG    CODE           ?PR?AT24C02_READ_BYTES?SEEKFREE_AT24C02
   *DEL*:           000011H   BYTE   INSEG    CODE           ?PR?AT24C02_SIMIIC_STOP?SEEKFREE_AT24C02
   *DEL*:           000022H   BYTE   INSEG    CODE           ?PR?AT24C02_SIMIIC_WRITE_REG?SEEKFREE_AT24C02
   *DEL*:           000015H   BYTE   INSEG    CODE           ?PR?AT24C02_READ_BYTE?SEEKFREE_AT24C02
   *DEL*:           00005BH   BYTE   INSEG    CODE           ?PR?AT24C02_WRITE_BYTES?SEEKFREE_AT24C02
   *DEL*:           000020H   BYTE   INSEG    CODE           ?PR?AT24C02_SIMIIC_SENDACK?SEEKFREE_AT24C02
   *DEL*:           000019H   BYTE   INSEG    CODE           ?PR?AT24C02_WRITE_BYTE?SEEKFREE_AT24C02
   *DEL*:           00003BH   BYTE   INSEG    CODE           ?PR?AT24C02_READ_CH?SEEKFREE_AT24C02
   *DEL*:           00002EH   BYTE   INSEG    CODE           ?PR?AT24C02_SEND_CH?SEEKFREE_AT24C02
   *DEL*:           00001CH   BYTE   INSEG    CODE           ?PR?AT24C02_SCCB_WAITACK?SEEKFREE_AT24C02
   *DEL*:           00000DH   BYTE   INSEG    CODE           ?PR?AT24C02_SIMIIC_DELAY?SEEKFREE_AT24C02
   *DEL*:           00000FH   BYTE   INSEG    CODE           ?PR?AT24C02_SIMIIC_START?SEEKFREE_AT24C02
   *DEL*:           000002H   BYTE   UNIT     EDATA          ?ED?AT24C02_WRITE_BYTES?SEEKFREE_AT24C02
   *DEL*:           000002H   BYTE   UNIT     EDATA          ?ED?AT24C02_READ_BYTES?SEEKFREE_AT24C02
   *DEL*:           000022H   BYTE   INSEG    CODE           ?PR?BLUETOOTH_CH9141_READ_BUFF?SEEKFREE_BLUETOOTH_CH9141
   *DEL*:           0000ABH   BYTE   INSEG    CODE           ?PR?BLUETOOTH_CH9141_SEND_BUFF?SEEKFREE_BLUETOOTH_CH9141
   *DEL*:           00003CH   BYTE   INSEG    CODE           ?PR?BLUETOOTH_CH9141_INIT?SEEKFREE_BLUETOOTH_CH9141
   *DEL*:           000006H   BYTE   UNIT     EDATA          ?ED?BLUETOOTH_CH9141_SEND_BUFF?SEEKFREE_BLUETOOTH_CH9141
   *DEL*:           000004H   BYTE   UNIT     EDATA          ?ED?BLUETOOTH_CH9141_READ_BUFF?SEEKFREE_BLUETOOTH_CH9141
   *DEL*:           000012H   BYTE   INSEG    CODE           ?PR?ICM20602_GYRO_TRANSITION?SEEKFREE_ICM20602
   *DEL*:           000030H   BYTE   INSEG    CODE           ?PR?ICM20602_SIMSPI_R_REG_BYTES?SEEKFREE_ICM20602
   *DEL*:           000040H   BYTE   INSEG    CODE           ?PR?ICM20602_GET_ACC?SEEKFREE_ICM20602
   *DEL*:           000010H   BYTE   INSEG    CODE           ?PR?ICM20602_ACC_TRANSITION?SEEKFREE_ICM20602
   *DEL*:           000010H   BYTE   INSEG    CODE           ?PR?ICM20602_READ_REGISTERS?SEEKFREE_ICM20602
   *DEL*:           000040H   BYTE   INSEG    CODE           ?PR?ICM20602_GET_GYRO?SEEKFREE_ICM20602
   *DEL*:           000004H   BYTE   UNIT     EDATA          ?ED?ICM20602_SIMSPI_R_REG_BYTES?SEEKFREE_ICM20602
   *DEL*:           000006H   BYTE   UNIT     EDATA          ?ED?ICM20602_GET_ACC?SEEKFREE_ICM20602
   *DEL*:           000006H   BYTE   UNIT     EDATA          ?ED?ICM20602_GET_GYRO?SEEKFREE_ICM20602
   *DEL*:           000040H   BYTE   INSEG    CODE           ?PR?IMU660RA_GET_GYRO?SEEKFREE_IMU660RA
   *DEL*:           000016H   BYTE   INSEG    CODE           ?PR?IMU660RA_READ_REGISTER?SEEKFREE_IMU660RA
   *DEL*:           00000EH   BYTE   INSEG    CODE           ?PR?IMU660RA_WRITE_REGISTERS?SEEKFREE_IMU660RA
   *DEL*:           000012H   BYTE   INSEG    CODE           ?PR?IMU660RA_GYRO_TRANSITION?SEEKFREE_IMU660RA
   *DEL*:           000008H   BYTE   INSEG    CODE           ?PR?IMU660RA_WRITE_REGISTER?SEEKFREE_IMU660RA
   *DEL*:           000023H   BYTE   INSEG    CODE           ?PR?IMU660RA_SIMSPI_WR_BYTE?SEEKFREE_IMU660RA
   *DEL*:           00002CH   BYTE   INSEG    CODE           ?PR?IMU660RA_SELF_CHECK?SEEKFREE_IMU660RA
   *DEL*:           000030H   BYTE   INSEG    CODE           ?PR?IMU660RA_SIMSPI_R_REG_BYTES?SEEKFREE_IMU660RA
   *DEL*:           000025H   BYTE   INSEG    CODE           ?PR?IMU660RA_SIMSPI_W_REG_BYTES?SEEKFREE_IMU660RA
   *DEL*:           00000FH   BYTE   INSEG    CODE           ?PR?IMU660RA_SIMSPI_W_REG_BYTE?SEEKFREE_IMU660RA
   *DEL*:           00009AH   BYTE   INSEG    CODE           ?PR?IMU660RA_INIT?SEEKFREE_IMU660RA
   *DEL*:           000040H   BYTE   INSEG    CODE           ?PR?IMU660RA_GET_ACC?SEEKFREE_IMU660RA
   *DEL*:           000010H   BYTE   INSEG    CODE           ?PR?IMU660RA_ACC_TRANSITION?SEEKFREE_IMU660RA
   *DEL*:           000010H   BYTE   INSEG    CODE           ?PR?IMU660RA_READ_REGISTERS?SEEKFREE_IMU660RA
   *DEL*:           000004H   BYTE   UNIT     EDATA          ?ED?IMU660RA_SIMSPI_W_REG_BYTES?SEEKFREE_IMU660RA
   *DEL*:           000004H   BYTE   UNIT     EDATA          ?ED?IMU660RA_SIMSPI_R_REG_BYTES?SEEKFREE_IMU660RA
   *DEL*:           000002H   BYTE   UNIT     EDATA          ?ED?IMU660RA_READ_REGISTER?SEEKFREE_IMU660RA
   *DEL*:           000007H   BYTE   UNIT     EDATA          ?ED?IMU660RA_GET_ACC?SEEKFREE_IMU660RA
   *DEL*:           000007H   BYTE   UNIT     EDATA          ?ED?IMU660RA_GET_GYRO?SEEKFREE_IMU660RA
   *DEL*:           000003H   BYTE   INSEG    CODE           ?PR?IMU963RA_ACC_TRANSITION?SEEKFREE_IMU963RA
   *DEL*:           000040H   BYTE   INSEG    CODE           ?PR?IMU963RA_GET_GYRO?SEEKFREE_IMU963RA
   *DEL*:           000012H   BYTE   INSEG    CODE           ?PR?IMU963RA_MAG_TRANSITION?SEEKFREE_IMU963RA
   *DEL*:           000003H   BYTE   INSEG    CODE           ?PR?IMU963RA_GYRO_TRANSITION?SEEKFREE_IMU963RA
   *DEL*:           000023H   BYTE   INSEG    CODE           ?PR?IMU963RA_SIMSPI_WR_BYTE?SEEKFREE_IMU963RA
   *DEL*:           000052H   BYTE   INSEG    CODE           ?PR?IMU963RA_READ_MAG_REGISTER?SEEKFREE_IMU963RA
   *DEL*:           00002CH   BYTE   INSEG    CODE           ?PR?IMU963RA_CONNECT_MAG?SEEKFREE_IMU963RA
   *DEL*:           000010H   BYTE   INSEG    CODE           ?PR?IMU963RA_READ_ACC_GYRO_REGISTERS?SEEKFREE_IMU963RA
   *DEL*:           000061H   BYTE   INSEG    CODE           ?PR?IMU963RA_WRITE_MAG_REGISTER?SEEKFREE_IMU963RA
   *DEL*:           00001BH   BYTE   INSEG    CODE           ?PR?IMU963RA_READ_ACC_GYRO_REGISTER?SEEKFREE_IMU963RA
   *DEL*:           000030H   BYTE   INSEG    CODE           ?PR?IMU963RA_SIMSPI_R_REG_BYTES?SEEKFREE_IMU963RA
   *DEL*:           00001CH   BYTE   INSEG    CODE           ?PR?IMU963RA_SIMSPI_R_REG_BYTE?SEEKFREE_IMU963RA
   *DEL*:           000030H   BYTE   INSEG    CODE           ?PR?IMU963RA_MAG_SELF_CHECK?SEEKFREE_IMU963RA
   *DEL*:           000008H   BYTE   INSEG    CODE           ?PR?IMU963RA_WRITE_ACC_GYRO_REGISTER?SEEKFREE_IMU963RA
L251 LINKER/LOCATER V4.66.93.0                                                        06/25/2023  18:36:41  PAGE 8


   *DEL*:           000013H   BYTE   INSEG    CODE           ?PR?IMU963RA_SIMSPI_W_REG_BYTE?SEEKFREE_IMU963RA
   *DEL*:           00010AH   BYTE   INSEG    CODE           ?PR?IMU963RA_INIT?SEEKFREE_IMU963RA
   *DEL*:           00002DH   BYTE   INSEG    CODE           ?PR?IMU963RA_ACC_GYRO_SELF_CHECK?SEEKFREE_IMU963RA
   *DEL*:           000040H   BYTE   INSEG    CODE           ?PR?IMU963RA_GET_ACC?SEEKFREE_IMU963RA
   *DEL*:           000056H   BYTE   INSEG    CODE           ?PR?IMU963RA_GET_MAG?SEEKFREE_IMU963RA
   *DEL*:           000004H   BYTE   UNIT     EDATA          ?ED?IMU963RA_SIMSPI_R_REG_BYTES?SEEKFREE_IMU963RA
   *DEL*:           000001H   BYTE   UNIT     EDATA          ?ED?IMU963RA_READ_ACC_GYRO_REGISTER?SEEKFREE_IMU963RA
   *DEL*:           000002H   BYTE   UNIT     EDATA          ?ED?IMU963RA_WRITE_MAG_REGISTER?SEEKFREE_IMU963RA
   *DEL*:           000006H   BYTE   UNIT     EDATA          ?ED?IMU963RA_GET_ACC?SEEKFREE_IMU963RA
   *DEL*:           000006H   BYTE   UNIT     EDATA          ?ED?IMU963RA_GET_GYRO?SEEKFREE_IMU963RA
   *DEL*:           000006H   BYTE   UNIT     EDATA          ?ED?IMU963RA_GET_MAG?SEEKFREE_IMU963RA
   *DEL*:           00000FH   BYTE   INSEG    CODE           ?PR?MPU6050_SIMIIC_START?SEEKFREE_MPU6050
   *DEL*:           000055H   BYTE   INSEG    CODE           ?PR?MPU6050_SIMIIC_READ_REGS?SEEKFREE_MPU6050
   *DEL*:           000029H   BYTE   INSEG    CODE           ?PR?MPU6050_SIMIIC_READ_REG?SEEKFREE_MPU6050
   *DEL*:           000011H   BYTE   INSEG    CODE           ?PR?MPU6050_SIMIIC_STOP?SEEKFREE_MPU6050
   *DEL*:           000022H   BYTE   INSEG    CODE           ?PR?MPU6050_SIMIIC_WRITE_REG?SEEKFREE_MPU6050
   *DEL*:           00005CH   BYTE   INSEG    CODE           ?PR?MPU6050_INIT?SEEKFREE_MPU6050
   *DEL*:           000032H   BYTE   INSEG    CODE           ?PR?MPU6050_SELF1_CHECK?SEEKFREE_MPU6050
   *DEL*:           000020H   BYTE   INSEG    CODE           ?PR?MPU6050_SIMIIC_SENDACK?SEEKFREE_MPU6050
   *DEL*:           00003BH   BYTE   INSEG    CODE           ?PR?MPU6050_READ_CH?SEEKFREE_MPU6050
   *DEL*:           00002EH   BYTE   INSEG    CODE           ?PR?MPU6050_SEND_CH?SEEKFREE_MPU6050
   *DEL*:           000040H   BYTE   INSEG    CODE           ?PR?MPU6050_GET_GYRO?SEEKFREE_MPU6050
   *DEL*:           00001CH   BYTE   INSEG    CODE           ?PR?MPU6050_SCCB_WAITACK?SEEKFREE_MPU6050
   *DEL*:           000040H   BYTE   INSEG    CODE           ?PR?MPU6050_GET_ACCDATA?SEEKFREE_MPU6050
   *DEL*:           00000BH   BYTE   INSEG    CODE           ?PR?MPU6050_SIMIIC_DELAY?SEEKFREE_MPU6050
   *DEL*:           000003H   BYTE   UNIT     EDATA          ?ED?MPU6050_SIMIIC_READ_REGS?SEEKFREE_MPU6050
   *DEL*:           000006H   BYTE   UNIT     EDATA          ?ED?MPU6050_GET_ACCDATA?SEEKFREE_MPU6050
   *DEL*:           000006H   BYTE   UNIT     EDATA          ?ED?MPU6050_GET_GYRO?SEEKFREE_MPU6050
   *DEL*:           000092H   BYTE   INSEG    CODE           ?PR?NUMBER_CONVERSION_ASCII?SEEKFREE_PRINTF
   *DEL*:           0004FAH   BYTE   INSEG    CODE           ?PR?ZF_SPRINTF?SEEKFREE_PRINTF
   *DEL*:           00003EH   BYTE   INSEG    CODE           ?PR?PRINTF_REVERSE_ORDER?SEEKFREE_PRINTF
   *DEL*:           000001H   BYTE   UNIT     EDATA          ?ED?NUMBER_CONVERSION_ASCII?SEEKFREE_PRINTF
   *DEL*:           00005FH   BYTE   UNIT     EDATA          ?ED?ZF_SPRINTF?SEEKFREE_PRINTF
   *DEL*:           000070H   BYTE   INSEG    CODE           ?PR?CCD_SEND_DATA?SEEKFREE_TSL1401
   *DEL*:           000016H   BYTE   INSEG    CODE           ?PR?CCD_INIT?SEEKFREE_TSL1401
   *DEL*:           000035H   BYTE   INSEG    CODE           ?PR?CCD_COLLECT?SEEKFREE_TSL1401
   *DEL*:           000003H   BYTE   UNIT     EDATA          ?ED?CCD_SEND_DATA?SEEKFREE_TSL1401
   *DEL*:           00003AH   BYTE   INSEG    CODE           ?PR?CRC_CHECK?SEEKFREE_VIRSCO
   *DEL*:           000069H   BYTE   INSEG    CODE           ?PR?DATA_CONVERSION?SEEKFREE_VIRSCO
   *DEL*:           000004H   BYTE   UNIT     EDATA          ?ED?DATA_CONVERSION?SEEKFREE_VIRSCO
   *DEL*:           000022H   BYTE   INSEG    CODE           ?PR?WIRELESS_UART_READ_BUFF?SEEKFREE_WIRELESS
   *DEL*:           00005DH   BYTE   INSEG    CODE           ?PR?WIRELESS_UART_SEND_BUFF?SEEKFREE_WIRELESS
   *DEL*:           00003CH   BYTE   INSEG    CODE           ?PR?WIRELESS_UART_INIT?SEEKFREE_WIRELESS
   *DEL*:           000002H   BYTE   UNIT     EDATA          ?ED?WIRELESS_UART_SEND_BUFF?SEEKFREE_WIRELESS
   *DEL*:           000004H   BYTE   UNIT     EDATA          ?ED?WIRELESS_UART_READ_BUFF?SEEKFREE_WIRELESS
   *DEL*:           000022H   BYTE   INSEG    CODE           ?PR?WIRELESS_CH573_READ_BUFF?SEEKFREE_WIRELESS_CH573
   *DEL*:           00005DH   BYTE   INSEG    CODE           ?PR?WIRELESS_CH573_SEND_BUFF?SEEKFREE_WIRELESS_CH573
   *DEL*:           00003CH   BYTE   INSEG    CODE           ?PR?WIRELESS_CH573_INIT?SEEKFREE_WIRELESS_CH573
   *DEL*:           000002H   BYTE   UNIT     EDATA          ?ED?WIRELESS_CH573_SEND_BUFF?SEEKFREE_WIRELESS_CH573
   *DEL*:           000004H   BYTE   UNIT     EDATA          ?ED?WIRELESS_CH573_READ_BUFF?SEEKFREE_WIRELESS_CH573
   *DEL*:           00007BH   BYTE   INSEG    CODE           ?PR?IPS114_SHOWUINT8_SIMSPI?SEEKFREE_IPS114_SPI
   *DEL*:           000077H   BYTE   INSEG    CODE           ?PR?IPS114_SHOWUINT8?SEEKFREE_IPS114_SPI
   *DEL*:           0000B9H   BYTE   INSEG    CODE           ?PR?IPS114_SHOWINT8_SIMSPI?SEEKFREE_IPS114_SPI
   *DEL*:           0000B5H   BYTE   INSEG    CODE           ?PR?IPS114_SHOWINT8?SEEKFREE_IPS114_SPI
   *DEL*:           00001FH   BYTE   INSEG    CODE           ?PR?IPS114_WRITEDATA_16BIT?SEEKFREE_IPS114_SPI
   *DEL*:           0000F8H   BYTE   INSEG    CODE           ?PR?IPS114_SHOWFLOAT_SIMSPI?SEEKFREE_IPS114_SPI
   *DEL*:           000013H   BYTE   INSEG    CODE           ?PR?IPS114_DRAWPOINT_SIMSPI?SEEKFREE_IPS114_SPI
   *DEL*:           0000F8H   BYTE   INSEG    CODE           ?PR?IPS114_SHOWFLOAT?SEEKFREE_IPS114_SPI
   *DEL*:           000013H   BYTE   INSEG    CODE           ?PR?IPS114_DRAWPOINT?SEEKFREE_IPS114_SPI
   *DEL*:           00008EH   BYTE   INSEG    CODE           ?PR?IPS114_SHOWCHAR_SIMSPI?SEEKFREE_IPS114_SPI
   *DEL*:           00008EH   BYTE   INSEG    CODE           ?PR?IPS114_SHOWCHAR?SEEKFREE_IPS114_SPI
   *DEL*:           00008BH   BYTE   INSEG    CODE           ?PR?IPS114_SHOWUINT16_SIMSPI?SEEKFREE_IPS114_SPI
   *DEL*:           00008BH   BYTE   INSEG    CODE           ?PR?IPS114_SHOWUINT16?SEEKFREE_IPS114_SPI
   *DEL*:           000082H   BYTE   INSEG    CODE           ?PR?IPS114_SHOWINT32_SIMSPI?SEEKFREE_IPS114_SPI
   *DEL*:           0000DDH   BYTE   INSEG    CODE           ?PR?IPS114_SHOWINT16_SIMSPI?SEEKFREE_IPS114_SPI
L251 LINKER/LOCATER V4.66.93.0                                                        06/25/2023  18:36:41  PAGE 9


   *DEL*:           000082H   BYTE   INSEG    CODE           ?PR?IPS114_SHOWINT32?SEEKFREE_IPS114_SPI
   *DEL*:           0000D9H   BYTE   INSEG    CODE           ?PR?IPS114_SHOWINT16?SEEKFREE_IPS114_SPI
   *DEL*:           00003CH   BYTE   INSEG    CODE           ?PR?IPS114_CLEAR_SIMSPI?SEEKFREE_IPS114_SPI
   *DEL*:           00003CH   BYTE   INSEG    CODE           ?PR?IPS114_CLEAR?SEEKFREE_IPS114_SPI
   *DEL*:           00002CH   BYTE   INSEG    CODE           ?PR?IPS114_WRITEDATAI_16BIT_SIMSPI?SEEKFREE_IPS114_SPI
   *DEL*:           00004EH   BYTE   INSEG    CODE           ?PR?IPS114_SHOWSTR_SIMSPI?SEEKFREE_IPS114_SPI
   *DEL*:           00004EH   BYTE   INSEG    CODE           ?PR?IPS114_SHOWSTR?SEEKFREE_IPS114_SPI
   *DEL*:           000029H   BYTE   INSEG    CODE           ?PR?IPS114_WRITEINDEX_SIMSPI?SEEKFREE_IPS114_SPI
   *DEL*:           000029H   BYTE   INSEG    CODE           ?PR?IPS114_WRITEDATA_SIMSPI?SEEKFREE_IPS114_SPI
   *DEL*:           00000AH   BYTE   INSEG    CODE           ?PR?IPS114_WRITEINDEX?SEEKFREE_IPS114_SPI
   *DEL*:           00000AH   BYTE   INSEG    CODE           ?PR?IPS114_WRITEDATA?SEEKFREE_IPS114_SPI
   *DEL*:           000044H   BYTE   INSEG    CODE           ?PR?IPS114_SET_REGION_SIMSPI?SEEKFREE_IPS114_SPI
   *DEL*:           00014FH   BYTE   INSEG    CODE           ?PR?IPS114_INIT_SIMSPI?SEEKFREE_IPS114_SPI
   *DEL*:           000048H   BYTE   INSEG    CODE           ?PR?IPS114_SET_REGION?SEEKFREE_IPS114_SPI
   *DEL*:           00016DH   BYTE   INSEG    CODE           ?PR?IPS114_INIT?SEEKFREE_IPS114_SPI
   *DEL*:           000004H   BYTE   UNIT     EDATA          ?ED?IPS114_SET_REGION_SIMSPI?SEEKFREE_IPS114_SPI
   *DEL*:           000002H   BYTE   UNIT     EDATA          ?ED?IPS114_CLEAR_SIMSPI?SEEKFREE_IPS114_SPI
   *DEL*:           000004H   BYTE   UNIT     EDATA          ?ED?IPS114_SHOWCHAR_SIMSPI?SEEKFREE_IPS114_SPI
   *DEL*:           000006H   BYTE   UNIT     EDATA          ?ED?IPS114_SHOWSTR_SIMSPI?SEEKFREE_IPS114_SPI
   *DEL*:           000005H   BYTE   UNIT     EDATA          ?ED?IPS114_SHOWINT8_SIMSPI?SEEKFREE_IPS114_SPI
   *DEL*:           000004H   BYTE   UNIT     EDATA          ?ED?IPS114_SHOWUINT8_SIMSPI?SEEKFREE_IPS114_SPI
   *DEL*:           000008H   BYTE   UNIT     EDATA          ?ED?IPS114_SHOWINT16_SIMSPI?SEEKFREE_IPS114_SPI
   *DEL*:           000006H   BYTE   UNIT     EDATA          ?ED?IPS114_SHOWUINT16_SIMSPI?SEEKFREE_IPS114_SPI
   *DEL*:           000028H   BYTE   UNIT     EDATA          ?ED?IPS114_SHOWINT32_SIMSPI?SEEKFREE_IPS114_SPI
   *DEL*:           00002BH   BYTE   UNIT     EDATA          ?ED?IPS114_SHOWFLOAT_SIMSPI?SEEKFREE_IPS114_SPI
   *DEL*:           000002H   BYTE   UNIT     EDATA          ?ED?IPS114_WRITEDATA_16BIT?SEEKFREE_IPS114_SPI
   *DEL*:           000004H   BYTE   UNIT     EDATA          ?ED?IPS114_SET_REGION?SEEKFREE_IPS114_SPI
   *DEL*:           000002H   BYTE   UNIT     EDATA          ?ED?IPS114_CLEAR?SEEKFREE_IPS114_SPI
   *DEL*:           000004H   BYTE   UNIT     EDATA          ?ED?IPS114_SHOWCHAR?SEEKFREE_IPS114_SPI
   *DEL*:           000006H   BYTE   UNIT     EDATA          ?ED?IPS114_SHOWSTR?SEEKFREE_IPS114_SPI
   *DEL*:           000005H   BYTE   UNIT     EDATA          ?ED?IPS114_SHOWINT8?SEEKFREE_IPS114_SPI
   *DEL*:           000004H   BYTE   UNIT     EDATA          ?ED?IPS114_SHOWUINT8?SEEKFREE_IPS114_SPI
   *DEL*:           000008H   BYTE   UNIT     EDATA          ?ED?IPS114_SHOWINT16?SEEKFREE_IPS114_SPI
   *DEL*:           000006H   BYTE   UNIT     EDATA          ?ED?IPS114_SHOWUINT16?SEEKFREE_IPS114_SPI
   *DEL*:           000028H   BYTE   UNIT     EDATA          ?ED?IPS114_SHOWINT32?SEEKFREE_IPS114_SPI
   *DEL*:           00002BH   BYTE   UNIT     EDATA          ?ED?IPS114_SHOWFLOAT?SEEKFREE_IPS114_SPI
   *DEL*:           000161H   BYTE   INSEG    CODE           ?PR?SHUJU_ADC?ADC
   *DEL*:           000034H   BYTE   UNIT     EDATA          ?ED?SHUJU_ADC?ADC
   *DEL*:           000026H   BYTE   INSEG    CODE           ?PR?READ_ENCODERL?ENCODER
   *DEL*:           000022H   BYTE   INSEG    CODE           ?PR?READ_ENCODERR?ENCODER
   *DEL*:           00004BH   BYTE   INSEG    CODE           ?PR?USE_ENCODERL?ENCODER
   *DEL*:           00000CH   BYTE   INSEG    CODE           ?PR?CLEAN_ENCODER?ENCODER
   *DEL*:           00000CH   BYTE   INSEG    CODE           ?PR?ENCODER_INIT?ENCODER
   *DEL*:           000026H   BYTE   INSEG    CODE           ?PR?QIAN?MOTOR
   *DEL*:           000024H   BYTE   INSEG    CODE           ?PR?TING?MOTOR
   *DEL*:           000040H   BYTE   INSEG    CODE           ?PR?MOTOR_INIT?MOTOR
   *DEL*:           000028H   BYTE   INSEG    CODE           ?PR?HOU?MOTOR
   *DEL*:           000094H   BYTE   INSEG    CODE           ?PR?OLED_SHOWPICTURE?OLED
   *DEL*:           00002CH   BYTE   INSEG    CODE           ?PR?OLED_DISPLAYTURN?OLED
   *DEL*:           000027H   BYTE   INSEG    CODE           ?PR?OLED_WR_BP?OLED
   *DEL*:           00003CH   BYTE   INSEG    CODE           ?PR?OLED_DRAWPOINT?OLED
   *DEL*:           00006CH   BYTE   INSEG    CODE           ?PR?OLED_SHOWSTRING?OLED
   *DEL*:           0000F3H   BYTE   INSEG    CODE           ?PR?OLED_SHOWCHAR?OLED
   *DEL*:           00001EH   BYTE   INSEG    CODE           ?PR?OLED_COLORTURN?OLED
   *DEL*:           000017H   BYTE   INSEG    CODE           ?PR?OLED_POW?OLED
   *DEL*:           000015H   BYTE   INSEG    CODE           ?PR?OLED_DISPLAY_OFF?OLED
   *DEL*:           0000B0H   BYTE   INSEG    CODE           ?PR?OLED_SCROLLDISPLAY?OLED
   *DEL*:           000077H   BYTE   INSEG    CODE           ?PR?OLED_SHOWNUM?OLED
   *DEL*:           000147H   BYTE   INSEG    CODE           ?PR?OLED_SHOWCHINESE?OLED
   *DEL*:           000052H   BYTE   INSEG    CODE           ?PR?OLED_CLEARPOINT?OLED
   *DEL*:           000005H   BYTE   UNIT     EDATA          ?ED?OLED_SHOWCHAR?OLED
   *DEL*:           000003H   BYTE   UNIT     EDATA          ?ED?OLED_SHOWSTRING?OLED
   *DEL*:           000004H   BYTE   UNIT     EDATA          ?ED?OLED_SHOWNUM?OLED
   *DEL*:           000008H   BYTE   UNIT     EDATA          ?ED?OLED_SHOWCHINESE?OLED
   *DEL*:           000003H   BYTE   UNIT     EDATA          ?ED?OLED_SCROLLDISPLAY?OLED
L251 LINKER/LOCATER V4.66.93.0                                                        06/25/2023  18:36:41  PAGE 10


   *DEL*:           000007H   BYTE   UNIT     EDATA          ?ED?OLED_SHOWPICTURE?OLED
   *DEL*:           000064H   BYTE   INSEG    CODE           ?PR?PIDL_INIT?PID
   *DEL*:           000134H   BYTE   INSEG    CODE           ?PR?PIDL_INC?PID
   *DEL*:           000064H   BYTE   INSEG    CODE           ?PR?PIDR_INIT?PID
   *DEL*:           000153H   BYTE   INSEG    CODE           ?PR?PIDL_LOC?PID
   *DEL*:           000134H   BYTE   INSEG    CODE           ?PR?PIDR_INC?PID
   *DEL*:           000153H   BYTE   INSEG    CODE           ?PR?PIDR_LOC?PID
   *DEL*:           000020H   BYTE   INSEG    CODE           ?PR?CONSTRAIN_FLOAT?PID
   *DEL*:           000004H   BYTE   UNIT     EDATA          ?ED?CONSTRAIN_FLOAT?PID
   *DEL*:           000004H   BYTE   UNIT     EDATA          ?ED?PIDL_LOC?PID
   *DEL*:           000004H   BYTE   UNIT     EDATA          ?ED?PIDR_LOC?PID
   *DEL*:           000004H   BYTE   UNIT     EDATA          ?ED?PIDL_INC?PID
   *DEL*:           000004H   BYTE   UNIT     EDATA          ?ED?PIDR_INC?PID



OVERLAY MAP OF MODULE:   .\Out_File\SEEKFREE (board)


FUNCTION/MODULE                               EDATA_GROUP
--> CALLED FUNCTION/MODULE                    START  STOP
=========================================================
?C_C51STARTUP?1                               ----- -----

*** NEW ROOT ********************************

UART1_Isr/isr                                 ----- -----

*** NEW ROOT ********************************

UART2_Isr/isr                                 ----- -----

*** NEW ROOT ********************************

UART3_Isr/isr                                 ----- -----

*** NEW ROOT ********************************

UART4_Isr/isr                                 ----- -----
  +--> wireless_uart_callback/SEEKFREE_WIRELESS
  +--> bluetooth_ch9141_uart_callback/SEEKFREE_BLUETOOTH_CH9141
  +--> wireless_ch573_callback/SEEKFREE_WIRELESS_CH573

wireless_uart_callback/SEEKFREE_WIRELESS      ----- -----
  +--> fifo_write_buffer/zf_fifo

fifo_write_buffer/zf_fifo                     066FH 067AH
  +--> memcpy?_/memcpy
  +--> fifo_head_offset/zf_fifo

memcpy?_/memcpy                               ----- -----

fifo_head_offset/zf_fifo                      ----- -----

bluetooth_ch9141_uart_callback/SEEKFREE_+     ----- -----
... BLUETOOTH_CH9141
  +--> fifo_write_buffer/zf_fifo

wireless_ch573_callback/SEEKFREE_WIRELES+     ----- -----
... S_CH573
  +--> fifo_write_buffer/zf_fifo

*** NEW ROOT ********************************

INT0_Isr/isr                                  ----- -----
L251 LINKER/LOCATER V4.66.93.0                                                        06/25/2023  18:36:41  PAGE 11


  +--> delay_ms/zf_delay

delay_ms/zf_delay                             ----- -----

*** NEW ROOT ********************************

INT1_Isr/isr                                  ----- -----

*** NEW ROOT ********************************

INT2_Isr/isr                                  ----- -----

*** NEW ROOT ********************************

INT3_Isr/isr                                  ----- -----

*** NEW ROOT ********************************

INT4_Isr/isr                                  ----- -----

*** NEW ROOT ********************************

DMA_ISR_Handler/isr                           ----- -----

*** NEW ROOT ********************************

TM0_Isr/isr                                   ----- -----

*** NEW ROOT ********************************

TM1_Isr/isr                                   ----- -----

*** NEW ROOT ********************************

TM2_Isr/isr                                   ----- -----

*** NEW ROOT ********************************

TM3_Isr/isr                                   ----- -----

*** NEW ROOT ********************************

TM4_Isr/isr                                   ----- -----
  +--> pit_handler/main

pit_handler/main                              ----- -----
  +--> dl1a_get_distance/SEEKFREE_DL1A

dl1a_get_distance/SEEKFREE_DL1A               067BH 067DH
  +--> dl1a_simiic_read_regs_1/SEEKFREE_DL1A
  +--> dl1a_simiic_write_reg/SEEKFREE_DL1A

dl1a_simiic_read_regs_1/SEEKFREE_DL1A         067EH 0683H
  +--> dl1a_simiic_start/SEEKFREE_DL1A
  +--> dl1a_send_ch/SEEKFREE_DL1A
  +--> dl1a_read_ch/SEEKFREE_DL1A
  +--> dl1a_simiic_stop/SEEKFREE_DL1A

dl1a_simiic_start/SEEKFREE_DL1A               ----- -----
  +--> dl1a_simiic_delay/SEEKFREE_DL1A

dl1a_simiic_delay/SEEKFREE_DL1A               ----- -----

dl1a_send_ch/SEEKFREE_DL1A                    ----- -----
  +--> dl1a_simiic_delay/SEEKFREE_DL1A
L251 LINKER/LOCATER V4.66.93.0                                                        06/25/2023  18:36:41  PAGE 12


  +--> dl1a_sccb_waitack/SEEKFREE_DL1A

dl1a_sccb_waitack/SEEKFREE_DL1A               ----- -----
  +--> dl1a_simiic_delay/SEEKFREE_DL1A

dl1a_read_ch/SEEKFREE_DL1A                    ----- -----
  +--> dl1a_simiic_delay/SEEKFREE_DL1A
  +--> dl1a_simiic_sendack/SEEKFREE_DL1A

dl1a_simiic_sendack/SEEKFREE_DL1A             ----- -----
  +--> dl1a_simiic_delay/SEEKFREE_DL1A

dl1a_simiic_stop/SEEKFREE_DL1A                ----- -----
  +--> dl1a_simiic_delay/SEEKFREE_DL1A

dl1a_simiic_write_reg/SEEKFREE_DL1A           ----- -----
  +--> dl1a_simiic_start/SEEKFREE_DL1A
  +--> dl1a_send_ch/SEEKFREE_DL1A
  +--> dl1a_simiic_stop/SEEKFREE_DL1A

*** NEW ROOT ********************************

?C_C51STARTUP                                 ----- -----

*** NEW ROOT ********************************

?C_C51STARTUP?3                               ----- -----
  +--> main/main

main/main                                     ----- -----
  +--> DisableGlobalIRQ/board
  +--> all_init/allinit
  +--> board_init/board
  +--> pit_timer_ms/zf_tim
  +--> EnableGlobalIRQ/board
  +--> PRINTF/PRINTF

DisableGlobalIRQ/board                        ----- -----

all_init/allinit                              ----- -----
  +--> uart_init/zf_uart
  +--> pwm_init/zf_pwm
  +--> Use_adc_Init/adc
  +--> icm20602_init/SEEKFREE_ICM20602
  +--> OLED_Init/oled
  +--> OLED_Clear/oled
  +--> OLED_DisPlay_On/oled
  +--> ctimer_count_init/zf_tim
  +--> pit_timer_ms/zf_tim
  +--> dl1a_init/SEEKFREE_DL1A
  +--> DMA_config/zf__DMA

uart_init/zf_uart                             0684H 0689H
  +--> ?C?ULIDIV/?C?ULDIV

?C?ULIDIV/?C?ULDIV                            ----- -----

pwm_init/zf_pwm                               0684H 068FH
  +--> pwm_set_gpio/zf_pwm
  +--> ?C?ULIDIV/?C?ULDIV

pwm_set_gpio/zf_pwm                           ----- -----
  +--> gpio_mode/zf_gpio

gpio_mode/zf_gpio                             ----- -----
L251 LINKER/LOCATER V4.66.93.0                                                        06/25/2023  18:36:41  PAGE 13



Use_adc_Init/adc                              ----- -----
  +--> adc_init/zf_adc

adc_init/zf_adc                               ----- -----

icm20602_init/SEEKFREE_ICM20602               ----- -----
  +--> delay_ms/zf_delay
  +--> icm20602_self_check/SEEKFREE_ICM20602
  +--> PRINTF/PRINTF
  +--> icm20602_write_register/SEEKFREE_ICM20602
  +--> icm20602_read_register/SEEKFREE_ICM20602

icm20602_self_check/SEEKFREE_ICM20602         ----- -----
  +--> icm20602_read_register/SEEKFREE_ICM20602
  +--> delay_ms/zf_delay

icm20602_read_register/SEEKFREE_ICM20602      0684H 0684H
  +--> icm20602_simspi_r_reg_byte/SEEKFREE_ICM20602

icm20602_simspi_r_reg_byte/SEEKFREE_ICM2+     ----- -----
... 0602
  +--> icm20602_simspi_wr_byte/SEEKFREE_ICM20602

icm20602_simspi_wr_byte/SEEKFREE_ICM2060+     ----- -----
... 2

PRINTF/PRINTF                                 0696H 06BDH
  +--> OUT/PRINTF

OUT/PRINTF                                    ----- -----
  +--> PUTCH/PRINTF

PUTCH/PRINTF                                  ----- -----
  +--> putchar/board
  +--> OUT/PRINTF

putchar/board                                 ----- -----
  +--> uart_putchar/zf_uart

uart_putchar/zf_uart                          ----- -----

icm20602_write_register/SEEKFREE_ICM2060+     ----- -----
... 2
  +--> icm20602_simspi_w_reg_byte/SEEKFREE_ICM20602

icm20602_simspi_w_reg_byte/SEEKFREE_ICM2+     ----- -----
... 0602
  +--> icm20602_simspi_wr_byte/SEEKFREE_ICM20602

OLED_Init/oled                                ----- -----
  +--> spi_init/zf_spi
  +--> delay_ms/zf_delay
  +--> OLED_WR_Byte/oled
  +--> OLED_Clear/oled

spi_init/zf_spi                               0684H 0687H
  +--> gpio_mode/zf_gpio

OLED_WR_Byte/oled                             ----- -----
  +--> spi_mosi/zf_spi

spi_mosi/zf_spi                               ----- -----

OLED_Clear/oled                               ----- -----
L251 LINKER/LOCATER V4.66.93.0                                                        06/25/2023  18:36:41  PAGE 14


  +--> OLED_Refresh/oled

OLED_Refresh/oled                             ----- -----
  +--> OLED_WR_Byte/oled

OLED_DisPlay_On/oled                          ----- -----
  +--> OLED_WR_Byte/oled

ctimer_count_init/zf_tim                      ----- -----

pit_timer_ms/zf_tim                           ----- -----
  +--> ?C?SLDIV/?C?SLDIV

?C?SLDIV/?C?SLDIV                             ----- -----
  +--> ?C?ULIDIV/?C?ULDIV

dl1a_init/SEEKFREE_DL1A                       0684H 0695H
  +--> memset?_/memset
  +--> delay_ms/zf_delay
  +--> dl1a_simiic_read_reg/SEEKFREE_DL1A
  +--> dl1a_simiic_write_reg/SEEKFREE_DL1A
  +--> dl1a_simiic_read_regs/SEEKFREE_DL1A
  +--> dl1a_set_signal_rate_limit/SEEKFREE_DL1A
  +--> dl1a_get_spad_info/SEEKFREE_DL1A
  +--> PRINTF/PRINTF
  +--> dl1a_simiic_write_dats/SEEKFREE_DL1A
  +--> dl1a_get_measurement_timing_budget/SEEKFREE_DL1A
  +--> dl1a_set_measurement_timing_budget/SEEKFREE_DL1A
  +--> dl1a_perform_single_ref_calibration/SEEKFREE_DL1A

memset?_/memset                               ----- -----

dl1a_simiic_read_reg/SEEKFREE_DL1A            ----- -----
  +--> dl1a_simiic_start/SEEKFREE_DL1A
  +--> dl1a_send_ch/SEEKFREE_DL1A
  +--> dl1a_read_ch/SEEKFREE_DL1A
  +--> dl1a_simiic_stop/SEEKFREE_DL1A

dl1a_simiic_read_regs/SEEKFREE_DL1A           06C0H 06C5H
  +--> dl1a_simiic_start/SEEKFREE_DL1A
  +--> dl1a_send_ch/SEEKFREE_DL1A
  +--> dl1a_read_ch/SEEKFREE_DL1A
  +--> dl1a_simiic_stop/SEEKFREE_DL1A

dl1a_set_signal_rate_limit/SEEKFREE_DL1A      0696H 0698H
  +--> dl1a_simiic_write_dats/SEEKFREE_DL1A

dl1a_simiic_write_dats/SEEKFREE_DL1A          06B9H 06BDH
  +--> dl1a_simiic_start/SEEKFREE_DL1A
  +--> dl1a_send_ch/SEEKFREE_DL1A
  +--> dl1a_simiic_stop/SEEKFREE_DL1A

dl1a_get_spad_info/SEEKFREE_DL1A              0696H 069DH
  +--> dl1a_simiic_write_reg/SEEKFREE_DL1A
  +--> dl1a_simiic_read_regs/SEEKFREE_DL1A

dl1a_get_measurement_timing_budget/SEEKF+     0696H 06B0H
... REE_DL1A
  +--> dl1a_get_sequence_step_enables/SEEKFREE_DL1A
  +--> dl1a_get_sequence_step_timeouts/SEEKFREE_DL1A

dl1a_get_sequence_step_enables/SEEKFREE_+     06B9H 06B9H
... DL1A
  +--> dl1a_simiic_read_regs/SEEKFREE_DL1A

L251 LINKER/LOCATER V4.66.93.0                                                        06/25/2023  18:36:41  PAGE 15


dl1a_get_sequence_step_timeouts/SEEKFREE+     06B9H 06BEH
... _DL1A
  +--> dl1a_get_vcsel_pulse_period/SEEKFREE_DL1A
  +--> dl1a_simiic_read_regs/SEEKFREE_DL1A
  +--> dl1a_timeout_mclks_to_microseconds/SEEKFREE_DL1A
  +--> dl1a_decode_timeout/SEEKFREE_DL1A

dl1a_get_vcsel_pulse_period/SEEKFREE_DL1+     06BFH 06BFH
... A
  +--> dl1a_simiic_read_regs/SEEKFREE_DL1A

dl1a_timeout_mclks_to_microseconds/SEEKF+     ----- -----
... REE_DL1A
  +--> ?C?ULIDIV/?C?ULDIV

dl1a_decode_timeout/SEEKFREE_DL1A             ----- -----

dl1a_set_measurement_timing_budget/SEEKF+     0696H 06B8H
... REE_DL1A
  +--> dl1a_get_sequence_step_enables/SEEKFREE_DL1A
  +--> dl1a_get_sequence_step_timeouts/SEEKFREE_DL1A
  +--> dl1a_timeout_microseconds_to_mclks/SEEKFREE_DL1A
  +--> dl1a_encode_timeout/SEEKFREE_DL1A
  +--> dl1a_simiic_write_dats/SEEKFREE_DL1A

dl1a_timeout_microseconds_to_mclks/SEEKF+     ----- -----
... REE_DL1A
  +--> ?C?ULIDIV/?C?ULDIV

dl1a_encode_timeout/SEEKFREE_DL1A             ----- -----

dl1a_perform_single_ref_calibration/SEEK+     0696H 0698H
... FREE_DL1A
  +--> dl1a_simiic_write_reg/SEEKFREE_DL1A
  +--> dl1a_simiic_read_regs/SEEKFREE_DL1A

DMA_config/zf__DMA                            0684H 0689H
  +--> DMA_ADC_Inilize/zf__DMA
  +--> NVIC_DMA_ADC_Init/zf__DMA

DMA_ADC_Inilize/zf__DMA                       ----- -----

NVIC_DMA_ADC_Init/zf__DMA                     ----- -----

board_init/board                              ----- -----
  +--> set_clk/board
  +--> delay_init/zf_delay
  +--> uart_init/zf_uart

set_clk/board                                 ----- -----

delay_init/zf_delay                           ----- -----
  +--> ?C?SLDIV/?C?SLDIV

EnableGlobalIRQ/board                         ----- -----

*** NEW ROOT ********************************

?C_C51STARTUP?2                               ----- -----



PUBLIC SYMBOLS OF MODULE:  .\Out_File\SEEKFREE (board)


L251 LINKER/LOCATER V4.66.93.0                                                        06/25/2023  18:36:41  PAGE 16


      VALUE       CLASS    TYPE      PUBLIC SYMBOL NAME
      =================================================
      00FF5D48H   CODE     NEAR LAB  ?C?CASTF
      000000FFH   NUMBER   ---       ?C?CODESEG
      00FF5D15H   CODE     NEAR LAB  ?C?FCASTC
      00FF5D10H   CODE     NEAR LAB  ?C?FCASTI
      00FF5D0BH   CODE     NEAR LAB  ?C?FCASTL
      00FF5AECH   CODE     ---       ?C?FPADD
      00FF5CC7H   CODE     ---       ?C?FPCMP
      00FF5CC5H   CODE     ---       ?C?FPCMP3
      00FF624CH   CODE     ---       ?C?FPCONVERT
      00FF5C44H   CODE     ---       ?C?FPDIV
      00FF5DB1H   CODE     ---       ?C?FPGETOPN2
      00FF5BA4H   CODE     ---       ?C?FPMUL
      00FF5DEEH   CODE     ---       ?C?FPNANRESULT
      00FF5DF6H   CODE     ---       ?C?FPOVERFLOW
      00FF5DCAH   CODE     ---       ?C?FPRESULT
      00FF5DE0H   CODE     ---       ?C?FPRESULT2
      00FF6304H   CODE     ---       ?C?FPROUND
      00FF5AE9H   CODE     ---       ?C?FPSUB
      00FF5DF3H   CODE     ---       ?C?FPUNDERFLOW
      00FF6377H   CODE     ---       ?C?FTNPWR
      00FF84BDH   CODE     ---       ?C?INITEDATA
      00FF8F63H   HCONST   WORD      ?C?INITEDATA_END
      00FF63F1H   CODE     ---       ?C?LIMUL
      00FF63E0H   CODE     ---       ?C?LMUL
      00FF5E2FH   CODE     ---       ?C?PRNFMT
      00FF63AEH   CODE     ---       ?C?SIDIV
      00FF644DH   CODE     NEAR LAB  ?C?SLDIV
      00FF0000H   CODE     ---       ?C?STARTUP
      00FF63FCH   CODE     NEAR LAB  ?C?ULDIV
      00FF63FAH   CODE     NEAR LAB  ?C?ULIDIV
      00000001H   NUMBER   ---       ?C?XDATASEG
      00FF0000H   CODE     ---       ?C_STARTUP
*DEL*:1FFFFFF8H   EDATA    BYTE      ?constrain_float?BYTE
*DEL*:1FFFFFF8H   EDATA    BYTE      ?data_conversion?BYTE
*DEL*:1FFFFFF8H   EDATA    BYTE      ?fifo_init?BYTE
*DEL*:1FFFFFFCH   EDATA    BYTE      ?fifo_read_buffer?BYTE
      0000066BH   EDATA    BYTE      ?fifo_write_buffer?BYTE
*DEL*:1FFFFFFAH   EDATA    BYTE      ?iic_init?BYTE
*DEL*:1FFFFFFCH   EDATA    BYTE      ?ips114_showfloat?BYTE
*DEL*:1FFFFFFCH   EDATA    BYTE      ?ips114_showfloat_simspi?BYTE
*DEL*:1FFFFFF7H   EDATA    BYTE      ?number_conversion_ascii?BYTE
*DEL*:1FFFFFF8H   EDATA    BYTE      ?PIDL_Inc?BYTE
*DEL*:1FFFFFF8H   EDATA    BYTE      ?PIDL_Loc?BYTE
*DEL*:1FFFFFF8H   EDATA    BYTE      ?PIDR_Inc?BYTE
*DEL*:1FFFFFF8H   EDATA    BYTE      ?PIDR_Loc?BYTE
      000006BEH   EDATA    ---       ?printf?BYTE
*DEL*:1FFFFFFAH   EDATA    BYTE      ?pwm_freq?BYTE
      00000682H   EDATA    BYTE      ?pwm_init?BYTE
      0000067BH   EDATA    BYTE      ?spi_init?BYTE
      0000067EH   EDATA    BYTE      ?uart_init?BYTE
*DEL*:00000028H   EDATA    BYTE      ?zf_sprintf?BYTE
*SFR* 000000BCH   DATA     BYTE      ADC_CONTR
      00FF8174H   CODE     ---       adc_init
*DEL*:00000000H   CODE     ---       adc_once
*SFR* 000000BDH   DATA     BYTE      ADC_RES
*SFR* 000000BEH   DATA     BYTE      ADC_RESL
*SFR* 000000DEH   DATA     BYTE      ADCCFG
      00FF7EBBH   CODE     ---       all_init
      00FF0E02H   CODE     ---       asc2_1206
      00FF1276H   CODE     ---       asc2_1608
      00FF00A6H   CODE     ---       asc2_2412
*DEL*:00000000H   CODE     ---       at24c02_read_byte
*DEL*:00000000H   CODE     ---       at24c02_read_bytes
L251 LINKER/LOCATER V4.66.93.0                                                        06/25/2023  18:36:41  PAGE 17


*DEL*:00000000H   CODE     ---       at24c02_write_byte
*DEL*:00000000H   CODE     ---       at24c02_write_bytes
*SFR* 000000EFH   DATA     BYTE      AUXINTIF
*SFR* 0000008EH   DATA     BYTE      AUXR
*SFR* 00000097H   DATA     BYTE      AUXR2
*DEL*:00000000H   CODE     ---       bluetooth_ch9141_init
*DEL*:00000000H   CODE     ---       bluetooth_ch9141_read_buff
*DEL*:00000000H   CODE     ---       bluetooth_ch9141_send_buff
      00FF896AH   CODE     ---       bluetooth_ch9141_uart_callback
      00FF7E2AH   CODE     ---       board_init
      0000066AH   EDATA    ---       busy
*SFR* 000000F1H   DATA     BYTE      CANICR
*DEL*:00000000H   CODE     ---       ccd_collect
      000004A2H   EDATA    ---       ccd_data
*DEL*:00000000H   CODE     ---       ccd_init
*DEL*:00000000H   CODE     ---       ccd_send_data
*SFR* 000000EAH   DATA     BYTE      CKCON
*DEL*:00000000H   CODE     ---       clean_encoder
*SFR* 000000E6H   DATA     BYTE      CMPCR1
*SFR* 000000E7H   DATA     BYTE      CMPCR2
*DEL*:00000000H   CODE     ---       constrain_float
*DEL*:00000000H   CODE     ---       CRC_CHECK
*DEL*:00000000H   CODE     ---       ctimer_count_clean
      00FF841CH   CODE     ---       ctimer_count_init
*DEL*:00000000H   CODE     ---       ctimer_count_read
*DEL*:00000000H   CODE     ---       data_conversion
      00FF861BH   CODE     ---       delay_init
      00FF89CDH   CODE     ---       delay_ms
*DEL*:00000000H   CODE     ---       delay_us
      00FF0066H   CODE     ---       DisableGlobalIRQ
      000007FFH   EDATA    WORD      dl1a_distance_mm
      00000801H   EDATA    BYTE      dl1a_finsh_flag
      00FF81D2H   CODE     ---       dl1a_get_distance
      00FF6481H   CODE     ---       dl1a_init
      00FF8111H   CODE     ---       DMA_ADC_Inilize
      00FF8567H   CODE     ---       DMA_config
      00FF88C1H   CODE     ---       DMA_ISR_Handler
      00010000H   XDATA    ---       DmaAdBuffer
      00000020H.0 BIT      BIT       DmaADCFlag
      0000001AH   EDATA    INT       duty
*SFR* 000000A8H.7 DATA     BIT       EA
*SFR* 000000BAH.7 DATA     BIT       EAXFR
*DEL*:00000000H   CODE     ---       eeprom_trig
      00FF005EH   CODE     ---       EnableGlobalIRQ
*DEL*:00000000H   CODE     ---       encoder_angle_simspi
*DEL*:00000000H   CODE     ---       encoder_angle_spi
*DEL*:00000000H   CODE     ---       encoder_delay_us
*DEL*:00000000H   CODE     ---       encoder_Init
*DEL*:00000000H   CODE     ---       encoder_init_simspi
*DEL*:00000000H   CODE     ---       encoder_init_spi
*DEL*:00000000H   CODE     ---       encoder_self4_check
*DEL*:00000000H   CODE     ---       encoder_self5_check
*DEL*:00000000H   CODE     ---       encoder_simspi_r_reg_byte
*DEL*:00000000H   CODE     ---       encoder_simspi_w_reg_byte
*DEL*:00000000H   CODE     ---       encoder_spi_r_reg_byte
*DEL*:00000000H   CODE     ---       encoder_spi_w_reg_byte
*SFR* 000000A8H.4 DATA     BIT       ES
*SFR* 000000A8H.1 DATA     BIT       ET0
*SFR* 000000A8H.3 DATA     BIT       ET1
*SFR* 000000A8H.0 DATA     BIT       EX0
*SFR* 000000A8H.2 DATA     BIT       EX1
*DEL*:00000000H   CODE     ---       exit_init
*DEL*:00000000H   CODE     ---       extern_iap_write_bytes
      0000001CH   EDATA    INT       f
*SFR* 000000D0H.5 DATA     BIT       F0
L251 LINKER/LOCATER V4.66.93.0                                                        06/25/2023  18:36:41  PAGE 18


*DEL*:00000000H   CODE     ---       fifo_clear
*DEL*:00000000H   CODE     ---       fifo_end_offset
      00FF8466H   CODE     ---       fifo_head_offset
*DEL*:00000000H   CODE     ---       fifo_init
*DEL*:00000000H   CODE     ---       fifo_read_buffer
*DEL*:00000000H   CODE     ---       fifo_used
      00FF7B43H   CODE     ---       fifo_write_buffer
      00FF6A9CH   CODE     ---       gpio_mode
*DEL*:00000000H   CODE     ---       gpio_pull_set
*DEL*:00000000H   CODE     ---       hou
      00FF528EH   CODE     ---       Hzk
      00FF1866H   CODE     ---       Hzk1
      00FF19C6H   CODE     ---       Hzk2
      00FF1A9EH   CODE     ---       Hzk3
      00FF1C9EH   CODE     ---       Hzk4
*SFR* 000000F6H   DATA     BYTE      IAP_ADDRE
*SFR* 000000C3H   DATA     BYTE      IAP_ADDRH
*SFR* 000000C4H   DATA     BYTE      IAP_ADDRL
*SFR* 000000C5H   DATA     BYTE      IAP_CMD
*SFR* 000000C7H   DATA     BYTE      IAP_CONTR
*SFR* 000000C2H   DATA     BYTE      IAP_DATA
*DEL*:00000000H   CODE     ---       iap_erase_page
*DEL*:00000000H   CODE     ---       iap_get_cmd_state
*DEL*:00000000H   CODE     ---       iap_idle
*DEL*:00000000H   CODE     ---       iap_init
*DEL*:00000000H   CODE     ---       iap_read_bytes
*DEL*:00000000H   CODE     ---       iap_set_tps
*SFR* 000000F5H   DATA     BYTE      IAP_TPS
*SFR* 000000C6H   DATA     BYTE      IAP_TRIG
*DEL*:00000000H   CODE     ---       iap_write_bytes
*DEL*:00000000H   CODE     ---       icm20602_acc_transition
      000007C5H   EDATA    INT       icm20602_acc_x
      000007C7H   EDATA    INT       icm20602_acc_y
      000007C9H   EDATA    INT       icm20602_acc_z
*DEL*:00000000H   CODE     ---       icm20602_get_acc
*DEL*:00000000H   CODE     ---       icm20602_get_gyro
*DEL*:00000000H   CODE     ---       icm20602_gyro_transition
      000007CBH   EDATA    INT       icm20602_gyro_x
      000007CDH   EDATA    INT       icm20602_gyro_y
      000007CFH   EDATA    INT       icm20602_gyro_z
      00FF7CFEH   CODE     ---       icm20602_init
*SFR* 000000A8H   DATA     BYTE      IE
*SFR* 000000AFH   DATA     BYTE      IE2
*DEL*:00000000H   CODE     ---       iic_change_pin
*DEL*:00000000H   CODE     ---       iic_delay_us
*DEL*:00000000H   CODE     ---       iic_init
*DEL*:00000000H   CODE     ---       iic_read_reg
*DEL*:00000000H   CODE     ---       iic_read_reg_bytes
*DEL*:00000000H   CODE     ---       iic_write_reg
*DEL*:00000000H   CODE     ---       imu660ra_acc_transition
      000007D1H   EDATA    INT       imu660ra_acc_x
      000007D3H   EDATA    INT       imu660ra_acc_y
      000007D5H   EDATA    INT       imu660ra_acc_z
      00FF2C9EH   CODE     ---       imu660ra_config_file
*DEL*:00000000H   CODE     ---       imu660ra_get_acc
*DEL*:00000000H   CODE     ---       imu660ra_get_gyro
*DEL*:00000000H   CODE     ---       imu660ra_gyro_transition
      000007D7H   EDATA    INT       imu660ra_gyro_x
      000007D9H   EDATA    INT       imu660ra_gyro_y
      000007DBH   EDATA    INT       imu660ra_gyro_z
*DEL*:00000000H   CODE     ---       imu660ra_init
*DEL*:00000000H   CODE     ---       imu963ra_acc_transition
      00000008H   EDATA    INT       imu963ra_acc_x
      0000000AH   EDATA    INT       imu963ra_acc_y
      0000000CH   EDATA    INT       imu963ra_acc_z
L251 LINKER/LOCATER V4.66.93.0                                                        06/25/2023  18:36:41  PAGE 19


*DEL*:00000000H   CODE     ---       imu963ra_get_acc
*DEL*:00000000H   CODE     ---       imu963ra_get_gyro
*DEL*:00000000H   CODE     ---       imu963ra_get_mag
*DEL*:00000000H   CODE     ---       imu963ra_gyro_transition
      00000014H   EDATA    INT       imu963ra_gyro_x
      00000016H   EDATA    INT       imu963ra_gyro_y
      00000018H   EDATA    INT       imu963ra_gyro_z
*DEL*:00000000H   CODE     ---       imu963ra_init
*DEL*:00000000H   CODE     ---       imu963ra_mag_transition
      0000000EH   EDATA    INT       imu963ra_mag_x
      00000010H   EDATA    INT       imu963ra_mag_y
      00000012H   EDATA    INT       imu963ra_mag_z
      00FF7F46H   CODE     ---       INT0_Isr
      00FF000AH   CODE     ---       INT1_Isr
      00FF0006H   CODE     ---       INT2_Isr
      00FF000EH   CODE     ---       INT3_Isr
      00FF0016H   CODE     ---       INT4_Isr
*SFR* 0000008FH   DATA     BYTE      INTCLKO
*SFR* 000000B8H   DATA     BYTE      IP
*SFR* 000000B5H   DATA     BYTE      IP2
*SFR* 000000B6H   DATA     BYTE      IP2H
*SFR* 000000DFH   DATA     BYTE      IP3
*SFR* 000000EEH   DATA     BYTE      IP3H
*SFR* 000000B7H   DATA     BYTE      IPH
*DEL*:00000000H   CODE     ---       ips114_clear
*DEL*:00000000H   CODE     ---       ips114_clear_simspi
*DEL*:00000000H   CODE     ---       ips114_drawpoint
*DEL*:00000000H   CODE     ---       ips114_drawpoint_simspi
*DEL*:00000000H   CODE     ---       ips114_init
*DEL*:00000000H   CODE     ---       ips114_init_simspi
*DEL*:00000000H   CODE     ---       ips114_set_region
*DEL*:00000000H   CODE     ---       ips114_set_region_simspi
*DEL*:00000000H   CODE     ---       ips114_showchar
*DEL*:00000000H   CODE     ---       ips114_showchar_simspi
*DEL*:00000000H   CODE     ---       ips114_showfloat
*DEL*:00000000H   CODE     ---       ips114_showfloat_simspi
*DEL*:00000000H   CODE     ---       ips114_showint16
*DEL*:00000000H   CODE     ---       ips114_showint16_simspi
*DEL*:00000000H   CODE     ---       ips114_showint32
*DEL*:00000000H   CODE     ---       ips114_showint32_simspi
*DEL*:00000000H   CODE     ---       ips114_showint8
*DEL*:00000000H   CODE     ---       ips114_showint8_simspi
*DEL*:00000000H   CODE     ---       ips114_showstr
*DEL*:00000000H   CODE     ---       ips114_showstr_simspi
*DEL*:00000000H   CODE     ---       ips114_showuint16
*DEL*:00000000H   CODE     ---       ips114_showuint16_simspi
*DEL*:00000000H   CODE     ---       ips114_showuint8
*DEL*:00000000H   CODE     ---       ips114_showuint8_simspi
*DEL*:00000000H   CODE     ---       ips114_writeData
*DEL*:00000000H   CODE     ---       ips114_writedata_16bit
*DEL*:00000000H   CODE     ---       ips114_writeData_simspi
*DEL*:00000000H   CODE     ---       ips114_writeDatai_16bit_simspi
*DEL*:00000000H   CODE     ---       ips114_writeIndex
*DEL*:00000000H   CODE     ---       ips114_writeIndex_simspi
*SFR* 0000009DH   DATA     BYTE      IRCBAND
*SFR* 0000009FH   DATA     BYTE      IRTRIM
*SFR* 00000088H.0 DATA     BIT       IT0
*SFR* 00000088H.2 DATA     BIT       IT1
*SFR* 000000F9H   DATA     BYTE      LINICR
      00FF868DH   CODE     ---       main
      00FF8834H   CODE     ---       memcpy?_
      00FF8950H   CODE     ---       memset?_
*DEL*:00000000H   CODE     ---       motor_init
      000007DDH   EDATA    INT       mpu6050_acc_x
      000007DFH   EDATA    INT       mpu6050_acc_y
L251 LINKER/LOCATER V4.66.93.0                                                        06/25/2023  18:36:41  PAGE 20


      000007E1H   EDATA    INT       mpu6050_acc_z
*DEL*:00000000H   CODE     ---       mpu6050_get_accdata
*DEL*:00000000H   CODE     ---       mpu6050_get_gyro
      000007E3H   EDATA    INT       mpu6050_gyro_x
      000007E5H   EDATA    INT       mpu6050_gyro_y
      000007E7H   EDATA    INT       mpu6050_gyro_z
*DEL*:00000000H   CODE     ---       mpu6050_init
*DEL*:00000000H   CODE     ---       mpu6050_simiic_read_reg
*DEL*:00000000H   CODE     ---       mpu6050_simiic_read_regs
*DEL*:00000000H   CODE     ---       number_conversion_ascii
      00FF83D0H   CODE     ---       NVIC_DMA_ADC_Init
*DEL*:00000000H   CODE     ---       NVIC_SetPriority
      00FF58BEH   CODE     ---       oled_6x8
      00FF4C9EH   CODE     ---       oled_8x16
      00FF887CH   CODE     ---       OLED_Clear
*DEL*:00000000H   CODE     ---       OLED_ClearPoint
*DEL*:00000000H   CODE     ---       OLED_ColorTurn
*DEL*:00000000H   CODE     ---       OLED_DisPlay_Off
      00FF006EH   CODE     ---       OLED_DisPlay_On
*DEL*:00000000H   CODE     ---       OLED_DisplayTurn
*DEL*:00000000H   CODE     ---       OLED_DrawPoint
      00000021H   EDATA    ---       OLED_GRAM
      00FF7976H   CODE     ---       OLED_Init
*DEL*:00000000H   CODE     ---       OLED_Pow
      00FF84E9H   CODE     ---       OLED_Refresh
*DEL*:00000000H   CODE     ---       OLED_ScrollDisplay
*DEL*:00000000H   CODE     ---       OLED_ShowChar
*DEL*:00000000H   CODE     ---       OLED_ShowChinese
*DEL*:00000000H   CODE     ---       OLED_ShowNum
*DEL*:00000000H   CODE     ---       OLED_ShowPicture
*DEL*:00000000H   CODE     ---       OLED_ShowString
*DEL*:00000000H   CODE     ---       OLED_WR_BP
      00FF8936H   CODE     ---       OLED_WR_Byte
*SFR* 00000080H   DATA     BYTE      P0
*SFR* 00000080H.7 DATA     BIT       P07
*SFR* 00000094H   DATA     BYTE      P0M0
*SFR* 00000093H   DATA     BYTE      P0M1
*SFR* 00000090H   DATA     BYTE      P1
*SFR* 00000092H   DATA     BYTE      P1M0
*SFR* 00000091H   DATA     BYTE      P1M1
*SFR* 000000A0H   DATA     BYTE      P2
*SFR* 000000A0H.0 DATA     BIT       P20
*SFR* 000000A0H.1 DATA     BIT       P21
*SFR* 000000A0H.2 DATA     BIT       P22
*SFR* 000000A0H.3 DATA     BIT       P23
*SFR* 000000A0H.4 DATA     BIT       P24
*SFR* 000000A0H.5 DATA     BIT       P25
*SFR* 000000A0H.6 DATA     BIT       P26
*SFR* 000000A0H.7 DATA     BIT       P27
*SFR* 00000096H   DATA     BYTE      P2M0
*SFR* 00000095H   DATA     BYTE      P2M1
*SFR* 000000B0H   DATA     BYTE      P3
*SFR* 000000B0H.2 DATA     BIT       P32
*SFR* 000000B0H.3 DATA     BIT       P33
*SFR* 000000B0H.5 DATA     BIT       P35
*SFR* 000000B2H   DATA     BYTE      P3M0
*SFR* 000000B1H   DATA     BYTE      P3M1
*SFR* 000000C0H   DATA     BYTE      P4
*SFR* 000000C0H.0 DATA     BIT       P40
*SFR* 000000C0H.1 DATA     BIT       P41
*SFR* 000000C0H.2 DATA     BIT       P42
*SFR* 000000C0H.3 DATA     BIT       P43
*SFR* 000000C0H.7 DATA     BIT       P47
*SFR* 000000B4H   DATA     BYTE      P4M0
*SFR* 000000B3H   DATA     BYTE      P4M1
L251 LINKER/LOCATER V4.66.93.0                                                        06/25/2023  18:36:41  PAGE 21


*SFR* 000000C8H   DATA     BYTE      P5
*SFR* 000000C8H.3 DATA     BIT       P53
*SFR* 000000CAH   DATA     BYTE      P5M0
*SFR* 000000C9H   DATA     BYTE      P5M1
*SFR* 000000E8H   DATA     BYTE      P6
*SFR* 000000E8H.3 DATA     BIT       P63
*SFR* 000000E8H.5 DATA     BIT       P65
*SFR* 000000CCH   DATA     BYTE      P6M0
*SFR* 000000CBH   DATA     BYTE      P6M1
*SFR* 000000F8H   DATA     BYTE      P7
*SFR* 000000F8H.7 DATA     BIT       P77
*SFR* 000000E2H   DATA     BYTE      P7M0
*SFR* 000000E1H   DATA     BYTE      P7M1
*SFR* 000000A2H   DATA     BYTE      P_SW1
*SFR* 000000BAH   DATA     BYTE      P_SW2
*SFR* 000000BBH   DATA     BYTE      P_SW3
*SFR* 00000087H   DATA     BYTE      PCON
*DEL*:00000000H   CODE     ---       PIDL_Inc
*DEL*:00000000H   CODE     ---       PIDL_Init
*DEL*:00000000H   CODE     ---       PIDL_Loc
*DEL*:00000000H   CODE     ---       PIDR_Inc
*DEL*:00000000H   CODE     ---       PIDR_Init
*DEL*:00000000H   CODE     ---       PIDR_Loc
      00FF0086H   CODE     ---       pit_handler
      00FF7D96H   CODE     ---       pit_timer_ms
      00FF5D85H   CODE     NEAR LAB  printf
*DEL*:00000000H   CODE     ---       printf_reverse_order
*SFR* 000000D0H   DATA     BYTE      PSW
      00FF8A35H   CODE     ---       putchar
      00FF8F85H   HCONST   ---       PWM_ARR_ADDR
      00FF8F8DH   HCONST   ---       PWM_CCER_ADDR
      00FF8F9DH   HCONST   ---       PWM_CCMR_ADDR
      00FF8F65H   HCONST   ---       PWM_CCR_ADDR
*DEL*:00000000H   CODE     ---       pwm_duty
*DEL*:00000000H   CODE     ---       pwm_freq
      00FF6E93H   CODE     ---       pwm_init
      00FF718FH   CODE     ---       pwm_set_gpio
*DEL*:00000000H   CODE     ---       qian
*DEL*:00000000H   CODE     ---       Read_encoderL
*DEL*:00000000H   CODE     ---       Read_encoderR
*DEL*:00000000H   CODE     ---       recv_ack
*DEL*:00000000H   CODE     ---       recv_data
*SFR* 000000FFH   DATA     BYTE      RSTCFG
*SFR* 0000009BH   DATA     BYTE      S2BUF
*SFR* 0000009AH   DATA     BYTE      S2CON
*SFR* 000000ADH   DATA     BYTE      S3BUF
*SFR* 000000ACH   DATA     BYTE      S3CON
*SFR* 000000FEH   DATA     BYTE      S4BUF
*SFR* 000000FDH   DATA     BYTE      S4CON
*SFR* 00000099H   DATA     BYTE      SBUF
*SFR* 00000098H   DATA     BYTE      SCON
*DEL*:00000000H   CODE     ---       send_ack
*DEL*:00000000H   CODE     ---       send_data
*DEL*:00000000H   CODE     ---       send_nak
      00FF776BH   CODE     ---       set_clk
*DEL*:00000000H   CODE     ---       set_zero_position_simspi
*DEL*:00000000H   CODE     ---       set_zero_position_spi
*DEL*:00000000H   CODE     ---       shuju_adc
*DEL*:00000000H   CODE     ---       simspi_r_reg_byte
*DEL*:00000000H   CODE     ---       simspi_w_reg_byte
*DEL*:00000000H   CODE     ---       simspi_wr_byte
*SFR* 000000CEH   DATA     BYTE      SPCTL
*SFR* 000000CFH   DATA     BYTE      SPDAT
*DEL*:00000000H   CODE     ---       spi_change_mode
*DEL*:00000000H   CODE     ---       spi_change_pin
L251 LINKER/LOCATER V4.66.93.0                                                        06/25/2023  18:36:41  PAGE 22


      00FF788DH   CODE     ---       spi_init
      00FF8A43H   CODE     ---       spi_mosi
*DEL*:00000000H   CODE     ---       spi_r_reg_byte
*DEL*:00000000H   CODE     ---       spi_w_reg_byte
*DEL*:00000000H   CODE     ---       spi_wr_byte
*SFR* 000000CDH   DATA     BYTE      SPSTAT
*DEL*:00000000H   CODE     ---       start
*DEL*:00000000H   CODE     ---       stop
      000007F3H   EDATA    LONG      sys_clk
*SFR* 000000D6H   DATA     BYTE      T2H
*SFR* 000000D7H   DATA     BYTE      T2L
*SFR* 000000D4H   DATA     BYTE      T3H
*SFR* 000000D5H   DATA     BYTE      T3L
*SFR* 000000D2H   DATA     BYTE      T4H
*SFR* 000000D3H   DATA     BYTE      T4L
*SFR* 000000DDH   DATA     BYTE      T4T3M
*SFR* 00000088H   DATA     BYTE      TCON
      000007FBH   EDATA    INT       templ_pluse
      000007FDH   EDATA    INT       tempr_pluse
      00FF52CEH   CODE     ---       tft_ascii
*SFR* 0000008CH   DATA     BYTE      TH0
*SFR* 0000008DH   DATA     BYTE      TH1
*DEL*:00000000H   CODE     ---       ting
*SFR* 0000008AH   DATA     BYTE      TL0
*SFR* 0000008BH   DATA     BYTE      TL1
      00FF0012H   CODE     ---       TM0_Isr
      00FF001AH   CODE     ---       TM1_Isr
      00FF001EH   CODE     ---       TM2_Isr
      00FF0056H   CODE     ---       TM3_Isr
      00FF872DH   CODE     ---       TM4_Isr
*SFR* 00000089H   DATA     BYTE      TMOD
*SFR* 00000088H.4 DATA     BIT       TR0
*SFR* 00000088H.6 DATA     BIT       TR1
      000004A1H   EDATA    BYTE      tsl1401_finish_flag
      00FF8654H   CODE     ---       UART1_Isr
      000005A2H   EDATA    ---       uart1_rx_buff
      00000606H   EDATA    ---       uart1_tx_buff
      00FF8902H   CODE     ---       UART2_Isr
      00FF891CH   CODE     ---       UART3_Isr
      00FF80ACH   CODE     ---       UART4_Isr
      00FF7430H   CODE     ---       uart_init
*DEL*:00000000H   CODE     ---       uart_putbuff
      00FF8287H   CODE     ---       uart_putchar
*DEL*:00000000H   CODE     ---       uart_putstr
*SFR* 000000F4H   DATA     BYTE      USBCON
      00FF87B7H   CODE     ---       Use_adc_Init
*DEL*:00000000H   CODE     ---       Use_encoderL
      000007E9H   EDATA    ---       virtual_scope_data
*SFR* 000000A6H   DATA     BYTE      VRTRIM
*DEL*:00000000H   CODE     ---       wait
*SFR* 000000C1H   DATA     BYTE      WDT_CONTR
      00FF899CH   CODE     ---       wireless_ch573_callback
*DEL*:00000000H   CODE     ---       wireless_ch573_init
*DEL*:00000000H   CODE     ---       wireless_ch573_read_buff
*DEL*:00000000H   CODE     ---       wireless_ch573_send_buff
      00000802H   EDATA    INT       wireless_type
      00FF8983H   CODE     ---       wireless_uart_callback
*DEL*:00000000H   CODE     ---       wireless_uart_init
*DEL*:00000000H   CODE     ---       wireless_uart_read_buff
*DEL*:00000000H   CODE     ---       wireless_uart_send_buff
*SFR* 000000E9H   DATA     BYTE      WTST
      000007F7H   EDATA    WORD      zf_delay_ms
      000007F9H   EDATA    WORD      zf_delay_us
*DEL*:00000000H   CODE     ---       zf_sprintf

L251 LINKER/LOCATER V4.66.93.0                                                        06/25/2023  18:36:41  PAGE 23




SYMBOL TABLE OF MODULE:  .\Out_File\SEEKFREE (board)

      VALUE       REP       CLASS    TYPE      SYMBOL NAME
      ====================================================
      ---         MODULE    ---      ---       board
      00FF005EH   PUBLIC    CODE     ---       EnableGlobalIRQ
      00FF7E2AH   PUBLIC    CODE     ---       board_init
      00FF776BH   PUBLIC    CODE     ---       set_clk
      00FF0066H   PUBLIC    CODE     ---       DisableGlobalIRQ
      00FF8A35H   PUBLIC    CODE     ---       putchar
      000007F3H   PUBLIC    EDATA    LONG      sys_clk
      00000094H   SFRSYM    DATA     BYTE      P0M0
      000000D0H   SFRSYM    DATA     BYTE      PSW
      000000BAH.7 SFRSYM    DATA     BIT       EAXFR
      0000009DH   SFRSYM    DATA     BYTE      IRCBAND
      00000097H   SFRSYM    DATA     BYTE      AUXR2
      000000EAH   SFRSYM    DATA     BYTE      CKCON
      000000EFH   SFRSYM    DATA     BYTE      AUXINTIF
      000000FDH   SFRSYM    DATA     BYTE      S4CON
      000000ACH   SFRSYM    DATA     BYTE      S3CON
      0000009AH   SFRSYM    DATA     BYTE      S2CON
      000000A6H   SFRSYM    DATA     BYTE      VRTRIM
      000000B7H   SFRSYM    DATA     BYTE      IPH
      000000CDH   SFRSYM    DATA     BYTE      SPSTAT
      000000DDH   SFRSYM    DATA     BYTE      T4T3M
      0000009FH   SFRSYM    DATA     BYTE      IRTRIM
      000000C1H   SFRSYM    DATA     BYTE      WDT_CONTR
      000000E9H   SFRSYM    DATA     BYTE      WTST
      000000DFH   SFRSYM    DATA     BYTE      IP3
      000000F4H   SFRSYM    DATA     BYTE      USBCON
      000000B5H   SFRSYM    DATA     BYTE      IP2
      000000FFH   SFRSYM    DATA     BYTE      RSTCFG
      000000F9H   SFRSYM    DATA     BYTE      LINICR
      0000008EH   SFRSYM    DATA     BYTE      AUXR
      000000AFH   SFRSYM    DATA     BYTE      IE2
      00000088H   SFRSYM    DATA     BYTE      TCON
      00000089H   SFRSYM    DATA     BYTE      TMOD
      00000098H   SFRSYM    DATA     BYTE      SCON
      000000F1H   SFRSYM    DATA     BYTE      CANICR
      00000087H   SFRSYM    DATA     BYTE      PCON
      000000BCH   SFRSYM    DATA     BYTE      ADC_CONTR
      000000E7H   SFRSYM    DATA     BYTE      CMPCR2
      000000E6H   SFRSYM    DATA     BYTE      CMPCR1
      000000DEH   SFRSYM    DATA     BYTE      ADCCFG
      000000B8H   SFRSYM    DATA     BYTE      IP
      0000008FH   SFRSYM    DATA     BYTE      INTCLKO
      000000EEH   SFRSYM    DATA     BYTE      IP3H
      000000B6H   SFRSYM    DATA     BYTE      IP2H
      000000A8H   SFRSYM    DATA     BYTE      IE
      000000BBH   SFRSYM    DATA     BYTE      P_SW3
      000000BAH   SFRSYM    DATA     BYTE      P_SW2
      000000A2H   SFRSYM    DATA     BYTE      P_SW1
      000000CEH   SFRSYM    DATA     BYTE      SPCTL
      000000F8H   SFRSYM    DATA     BYTE      P7
      000000A8H.7 SFRSYM    DATA     BIT       EA
      000000E1H   SFRSYM    DATA     BYTE      P7M1
      000000E8H   SFRSYM    DATA     BYTE      P6
      000000C8H   SFRSYM    DATA     BYTE      P5
      000000CBH   SFRSYM    DATA     BYTE      P6M1
      000000E2H   SFRSYM    DATA     BYTE      P7M0
      000000C0H   SFRSYM    DATA     BYTE      P4
      000000C9H   SFRSYM    DATA     BYTE      P5M1
      000000CCH   SFRSYM    DATA     BYTE      P6M0
L251 LINKER/LOCATER V4.66.93.0                                                        06/25/2023  18:36:41  PAGE 24


      000000B0H   SFRSYM    DATA     BYTE      P3
      000000B3H   SFRSYM    DATA     BYTE      P4M1
      000000CAH   SFRSYM    DATA     BYTE      P5M0
      000000A0H   SFRSYM    DATA     BYTE      P2
      000000B1H   SFRSYM    DATA     BYTE      P3M1
      000000B4H   SFRSYM    DATA     BYTE      P4M0
      00000090H   SFRSYM    DATA     BYTE      P1
      00000095H   SFRSYM    DATA     BYTE      P2M1
      000000B2H   SFRSYM    DATA     BYTE      P3M0
      00000080H   SFRSYM    DATA     BYTE      P0
      00000091H   SFRSYM    DATA     BYTE      P1M1
      00000096H   SFRSYM    DATA     BYTE      P2M0
      00000092H   SFRSYM    DATA     BYTE      P1M0
      00000093H   SFRSYM    DATA     BYTE      P0M1

      00FF776BH   BLOCK     CODE     ---       LVL=0
      00FF776BH   LINE      CODE     ---       #43
      00FF776BH   LINE      CODE     ---       #46
      00FF776EH   LINE      CODE     ---       #48
      00FF777EH   LINE      CODE     ---       #51
      00FF778BH   LINE      CODE     ---       #52
      00FF778FH   LINE      CODE     ---       #53
      00FF778FH   LINE      CODE     ---       #54
      00FF778FH   LINE      CODE     ---       #55
      00FF778FH   LINE      CODE     ---       #56
      00FF7791H   LINE      CODE     ---       #57
      00FF779DH   LINE      CODE     ---       #60
      00FF77AAH   LINE      CODE     ---       #61
      00FF77AEH   LINE      CODE     ---       #62
      00FF77AEH   LINE      CODE     ---       #63
      00FF77AEH   LINE      CODE     ---       #64
      00FF77AEH   LINE      CODE     ---       #65
      00FF77B0H   LINE      CODE     ---       #66
      00FF77BCH   LINE      CODE     ---       #69
      00FF77C9H   LINE      CODE     ---       #70
      00FF77CDH   LINE      CODE     ---       #71
      00FF77CDH   LINE      CODE     ---       #72
      00FF77CDH   LINE      CODE     ---       #73
      00FF77CDH   LINE      CODE     ---       #74
      00FF77CFH   LINE      CODE     ---       #75
      00FF77DBH   LINE      CODE     ---       #79
      00FF77E8H   LINE      CODE     ---       #80
      00FF77ECH   LINE      CODE     ---       #81
      00FF77ECH   LINE      CODE     ---       #82
      00FF77ECH   LINE      CODE     ---       #83
      00FF77ECH   LINE      CODE     ---       #84
      00FF77EEH   LINE      CODE     ---       #85
      00FF77FAH   LINE      CODE     ---       #88
      00FF7807H   LINE      CODE     ---       #89
      00FF7814H   LINE      CODE     ---       #90
      00FF781DH   LINE      CODE     ---       #91
      00FF7820H   LINE      CODE     ---       #92
      00FF7820H   LINE      CODE     ---       #93
      00FF7822H   LINE      CODE     ---       #94
      00FF782EH   LINE      CODE     ---       #97
      00FF783BH   LINE      CODE     ---       #98
      00FF7848H   LINE      CODE     ---       #99
      00FF7851H   LINE      CODE     ---       #100
      00FF7854H   LINE      CODE     ---       #101
      00FF7858H   LINE      CODE     ---       #102
      00FF785AH   LINE      CODE     ---       #105
      00FF785EH   LINE      CODE     ---       #107
      00FF786BH   LINE      CODE     ---       #108
      00FF7878H   LINE      CODE     ---       #109
      00FF7881H   LINE      CODE     ---       #110
L251 LINKER/LOCATER V4.66.93.0                                                        06/25/2023  18:36:41  PAGE 25


      00FF7884H   LINE      CODE     ---       #111
      00FF7888H   LINE      CODE     ---       #112
      00FF7888H   LINE      CODE     ---       #114
      00FF788CH   LINE      CODE     ---       #115
      ---         BLOCKEND  ---      ---       LVL=0

      00FF7E2AH   BLOCK     CODE     ---       LVL=0
      00FF7E2AH   LINE      CODE     ---       #121
      00FF7E2AH   LINE      CODE     ---       #123
      00FF7E2DH   LINE      CODE     ---       #124
      00FF7E30H   LINE      CODE     ---       #125
      00FF7E33H   LINE      CODE     ---       #126
      00FF7E36H   LINE      CODE     ---       #127
      00FF7E39H   LINE      CODE     ---       #137
      00FF7E40H   LINE      CODE     ---       #143
      00FF7E43H   LINE      CODE     ---       #145
      00FF7E46H   LINE      CODE     ---       #146
      00FF7E49H   LINE      CODE     ---       #147
      00FF7E55H   LINE      CODE     ---       #149
      00FF7E58H   LINE      CODE     ---       #150
      00FF7E5BH   LINE      CODE     ---       #151
      00FF7E5EH   LINE      CODE     ---       #152
      00FF7E61H   LINE      CODE     ---       #153
      00FF7E64H   LINE      CODE     ---       #154
      00FF7E67H   LINE      CODE     ---       #155
      00FF7E6AH   LINE      CODE     ---       #156
      00FF7E6DH   LINE      CODE     ---       #157
      00FF7E70H   LINE      CODE     ---       #158
      00FF7E73H   LINE      CODE     ---       #159
      00FF7E76H   LINE      CODE     ---       #160
      00FF7E79H   LINE      CODE     ---       #161
      00FF7E7CH   LINE      CODE     ---       #162
      00FF7E7FH   LINE      CODE     ---       #163
      00FF7E82H   LINE      CODE     ---       #164
      00FF7E85H   LINE      CODE     ---       #166
      00FF7E88H   LINE      CODE     ---       #167
      00FF7E8BH   LINE      CODE     ---       #168
      00FF7E8EH   LINE      CODE     ---       #169
      00FF7E91H   LINE      CODE     ---       #170
      00FF7E94H   LINE      CODE     ---       #171
      00FF7E97H   LINE      CODE     ---       #172
      00FF7E9AH   LINE      CODE     ---       #173
      00FF7E9DH   LINE      CODE     ---       #174
      00FF7EA0H   LINE      CODE     ---       #176
      ---         BLOCKEND  ---      ---       LVL=0

      00FF8A35H   BLOCK     CODE     ---       LVL=0
      R15         REGSYM    ---      CHAR      c
      00FF8A35H   LINE      CODE     ---       #182
      00FF8A39H   LINE      CODE     ---       #184
      00FF8A3EH   LINE      CODE     ---       #186
      00FF8A40H   LINE      CODE     ---       #187
      ---         BLOCKEND  ---      ---       LVL=0

      00FF0066H   BLOCK     CODE     ---       LVL=0
      00FF0066H   LINE      CODE     ---       #190
      00FF0066H   LINE      CODE     ---       #192
      00FF0068H   LINE      CODE     ---       #193
      ---         BLOCKEND  ---      ---       LVL=0

      00FF005EH   BLOCK     CODE     ---       LVL=0
      00FF005EH   LINE      CODE     ---       #196
      00FF005EH   LINE      CODE     ---       #198
      00FF0060H   LINE      CODE     ---       #199
      ---         BLOCKEND  ---      ---       LVL=0
L251 LINKER/LOCATER V4.66.93.0                                                        06/25/2023  18:36:41  PAGE 26



      ---         MODULE    ---      ---       common
      00000802H   PUBLIC    EDATA    INT       wireless_type
      000000D0H   SFRSYM    DATA     BYTE      PSW
      0000009DH   SFRSYM    DATA     BYTE      IRCBAND
      00000097H   SFRSYM    DATA     BYTE      AUXR2
      000000EFH   SFRSYM    DATA     BYTE      AUXINTIF
      000000FDH   SFRSYM    DATA     BYTE      S4CON
      000000ACH   SFRSYM    DATA     BYTE      S3CON
      0000009AH   SFRSYM    DATA     BYTE      S2CON
      000000B7H   SFRSYM    DATA     BYTE      IPH
      000000CDH   SFRSYM    DATA     BYTE      SPSTAT
      000000DDH   SFRSYM    DATA     BYTE      T4T3M
      000000C1H   SFRSYM    DATA     BYTE      WDT_CONTR
      000000DFH   SFRSYM    DATA     BYTE      IP3
      000000F4H   SFRSYM    DATA     BYTE      USBCON
      000000B5H   SFRSYM    DATA     BYTE      IP2
      000000FFH   SFRSYM    DATA     BYTE      RSTCFG
      000000F9H   SFRSYM    DATA     BYTE      LINICR
      0000008EH   SFRSYM    DATA     BYTE      AUXR
      000000AFH   SFRSYM    DATA     BYTE      IE2
      00000088H   SFRSYM    DATA     BYTE      TCON
      00000098H   SFRSYM    DATA     BYTE      SCON
      000000F1H   SFRSYM    DATA     BYTE      CANICR
      00000087H   SFRSYM    DATA     BYTE      PCON
      000000BCH   SFRSYM    DATA     BYTE      ADC_CONTR
      000000E7H   SFRSYM    DATA     BYTE      CMPCR2
      000000E6H   SFRSYM    DATA     BYTE      CMPCR1
      000000B8H   SFRSYM    DATA     BYTE      IP
      0000008FH   SFRSYM    DATA     BYTE      INTCLKO
      000000EEH   SFRSYM    DATA     BYTE      IP3H
      000000B6H   SFRSYM    DATA     BYTE      IP2H
      000000A8H   SFRSYM    DATA     BYTE      IE
      000000BBH   SFRSYM    DATA     BYTE      P_SW3
      000000BAH   SFRSYM    DATA     BYTE      P_SW2
      000000A2H   SFRSYM    DATA     BYTE      P_SW1
      000000CEH   SFRSYM    DATA     BYTE      SPCTL
      000000F8H   SFRSYM    DATA     BYTE      P7
      000000E8H   SFRSYM    DATA     BYTE      P6
      000000C8H   SFRSYM    DATA     BYTE      P5
      000000C0H   SFRSYM    DATA     BYTE      P4
      000000B0H   SFRSYM    DATA     BYTE      P3
      000000A0H   SFRSYM    DATA     BYTE      P2
      00000090H   SFRSYM    DATA     BYTE      P1
      00000080H   SFRSYM    DATA     BYTE      P0

      ---         MODULE    ---      ---       zf_adc
      00FF8174H   PUBLIC    CODE     ---       adc_init
      00000094H   SFRSYM    DATA     BYTE      P0M0
      000000D0H   SFRSYM    DATA     BYTE      PSW
      0000009DH   SFRSYM    DATA     BYTE      IRCBAND
      00000097H   SFRSYM    DATA     BYTE      AUXR2
      000000EFH   SFRSYM    DATA     BYTE      AUXINTIF
      000000FDH   SFRSYM    DATA     BYTE      S4CON
      000000ACH   SFRSYM    DATA     BYTE      S3CON
      0000009AH   SFRSYM    DATA     BYTE      S2CON
      000000B7H   SFRSYM    DATA     BYTE      IPH
      000000CDH   SFRSYM    DATA     BYTE      SPSTAT
      000000BEH   SFRSYM    DATA     BYTE      ADC_RESL
      000000DDH   SFRSYM    DATA     BYTE      T4T3M
      000000C1H   SFRSYM    DATA     BYTE      WDT_CONTR
      000000DFH   SFRSYM    DATA     BYTE      IP3
      000000F4H   SFRSYM    DATA     BYTE      USBCON
      000000B5H   SFRSYM    DATA     BYTE      IP2
      000000FFH   SFRSYM    DATA     BYTE      RSTCFG
L251 LINKER/LOCATER V4.66.93.0                                                        06/25/2023  18:36:41  PAGE 27


      000000F9H   SFRSYM    DATA     BYTE      LINICR
      0000008EH   SFRSYM    DATA     BYTE      AUXR
      000000AFH   SFRSYM    DATA     BYTE      IE2
      00000088H   SFRSYM    DATA     BYTE      TCON
      00000098H   SFRSYM    DATA     BYTE      SCON
      000000F1H   SFRSYM    DATA     BYTE      CANICR
      00000087H   SFRSYM    DATA     BYTE      PCON
      000000BCH   SFRSYM    DATA     BYTE      ADC_CONTR
      000000E7H   SFRSYM    DATA     BYTE      CMPCR2
      000000E6H   SFRSYM    DATA     BYTE      CMPCR1
      000000DEH   SFRSYM    DATA     BYTE      ADCCFG
      000000B8H   SFRSYM    DATA     BYTE      IP
      0000008FH   SFRSYM    DATA     BYTE      INTCLKO
      000000EEH   SFRSYM    DATA     BYTE      IP3H
      000000B6H   SFRSYM    DATA     BYTE      IP2H
      000000BDH   SFRSYM    DATA     BYTE      ADC_RES
      000000A8H   SFRSYM    DATA     BYTE      IE
      000000BBH   SFRSYM    DATA     BYTE      P_SW3
      000000BAH   SFRSYM    DATA     BYTE      P_SW2
      000000A2H   SFRSYM    DATA     BYTE      P_SW1
      000000CEH   SFRSYM    DATA     BYTE      SPCTL
      000000F8H   SFRSYM    DATA     BYTE      P7
      000000E8H   SFRSYM    DATA     BYTE      P6
      000000C8H   SFRSYM    DATA     BYTE      P5
      000000C0H   SFRSYM    DATA     BYTE      P4
      000000B0H   SFRSYM    DATA     BYTE      P3
      000000A0H   SFRSYM    DATA     BYTE      P2
      00000090H   SFRSYM    DATA     BYTE      P1
      00000080H   SFRSYM    DATA     BYTE      P0
      00000091H   SFRSYM    DATA     BYTE      P1M1
      00000092H   SFRSYM    DATA     BYTE      P1M0
      00000093H   SFRSYM    DATA     BYTE      P0M1

      00FF8174H   BLOCK     CODE     ---       LVL=0
      WR4         REGSYM    ---      INT       adcn
      WR2         REGSYM    ---      INT       speed
      00FF8174H   LINE      CODE     ---       #42
      00FF8178H   LINE      CODE     ---       #44
      00FF817BH   LINE      CODE     ---       #46
      00FF817EH   LINE      CODE     ---       #47
      00FF8184H   LINE      CODE     ---       #49
      00FF8190H   LINE      CODE     ---       #52
      00FF81A5H   LINE      CODE     ---       #53
      00FF81A9H   LINE      CODE     ---       #54
      00FF81ABH   LINE      CODE     ---       #55
      00FF81AFH   LINE      CODE     ---       #58
      00FF81C4H   LINE      CODE     ---       #59
      00FF81C8H   LINE      CODE     ---       #60
      00FF81C8H   LINE      CODE     ---       #62
      00FF81CEH   LINE      CODE     ---       #64
      00FF81D1H   LINE      CODE     ---       #65
      ---         BLOCKEND  ---      ---       LVL=0
      WR6         REGSYM    ---      INT       adcn
      WR4         REGSYM    ---      INT       resolution
      WR6         REGSYM    ---      WORD      adc_value

      ---         MODULE    ---      ---       zf_delay
      00FF861BH   PUBLIC    CODE     ---       delay_init
      00FF89CDH   PUBLIC    CODE     ---       delay_ms
      000007F7H   PUBLIC    EDATA    WORD      zf_delay_ms
      000007F9H   PUBLIC    EDATA    WORD      zf_delay_us
      000000D0H   SFRSYM    DATA     BYTE      PSW
      0000009DH   SFRSYM    DATA     BYTE      IRCBAND
      00000097H   SFRSYM    DATA     BYTE      AUXR2
      000000EFH   SFRSYM    DATA     BYTE      AUXINTIF
L251 LINKER/LOCATER V4.66.93.0                                                        06/25/2023  18:36:41  PAGE 28


      000000FDH   SFRSYM    DATA     BYTE      S4CON
      000000ACH   SFRSYM    DATA     BYTE      S3CON
      0000009AH   SFRSYM    DATA     BYTE      S2CON
      000000B7H   SFRSYM    DATA     BYTE      IPH
      000000CDH   SFRSYM    DATA     BYTE      SPSTAT
      000000DDH   SFRSYM    DATA     BYTE      T4T3M
      000000C1H   SFRSYM    DATA     BYTE      WDT_CONTR
      000000DFH   SFRSYM    DATA     BYTE      IP3
      000000F4H   SFRSYM    DATA     BYTE      USBCON
      000000B5H   SFRSYM    DATA     BYTE      IP2
      000000FFH   SFRSYM    DATA     BYTE      RSTCFG
      000000F9H   SFRSYM    DATA     BYTE      LINICR
      0000008EH   SFRSYM    DATA     BYTE      AUXR
      000000AFH   SFRSYM    DATA     BYTE      IE2
      00000088H   SFRSYM    DATA     BYTE      TCON
      00000098H   SFRSYM    DATA     BYTE      SCON
      000000F1H   SFRSYM    DATA     BYTE      CANICR
      00000087H   SFRSYM    DATA     BYTE      PCON
      000000BCH   SFRSYM    DATA     BYTE      ADC_CONTR
      000000E7H   SFRSYM    DATA     BYTE      CMPCR2
      000000E6H   SFRSYM    DATA     BYTE      CMPCR1
      000000B8H   SFRSYM    DATA     BYTE      IP
      0000008FH   SFRSYM    DATA     BYTE      INTCLKO
      000000EEH   SFRSYM    DATA     BYTE      IP3H
      000000B6H   SFRSYM    DATA     BYTE      IP2H
      000000A8H   SFRSYM    DATA     BYTE      IE
      000000BBH   SFRSYM    DATA     BYTE      P_SW3
      000000BAH   SFRSYM    DATA     BYTE      P_SW2
      000000A2H   SFRSYM    DATA     BYTE      P_SW1
      000000CEH   SFRSYM    DATA     BYTE      SPCTL
      000000F8H   SFRSYM    DATA     BYTE      P7
      000000E8H   SFRSYM    DATA     BYTE      P6
      000000C8H   SFRSYM    DATA     BYTE      P5
      000000C0H   SFRSYM    DATA     BYTE      P4
      000000B0H   SFRSYM    DATA     BYTE      P3
      000000A0H   SFRSYM    DATA     BYTE      P2
      00000090H   SFRSYM    DATA     BYTE      P1
      00000080H   SFRSYM    DATA     BYTE      P0

      00FF861BH   BLOCK     CODE     ---       LVL=0
      00FF861BH   LINE      CODE     ---       #34
      00FF861BH   LINE      CODE     ---       #36
      00FF862CH   LINE      CODE     ---       #37
      00FF863DH   LINE      CODE     ---       #38
      00FF8653H   LINE      CODE     ---       #40
      ---         BLOCKEND  ---      ---       LVL=0

      00FF89CDH   BLOCK     CODE     ---       LVL=0
      WR4         REGSYM    ---      WORD      ms
      00FF89CFH   BLOCK     CODE     NEAR LAB  LVL=1
      WR6         REGSYM    ---      WORD      i
      ---         BLOCKEND  ---      ---       LVL=1
      00FF89CDH   LINE      CODE     ---       #48
      00FF89CFH   LINE      CODE     ---       #49
      00FF89CFH   LINE      CODE     ---       #51
      00FF89CFH   LINE      CODE     ---       #52
      00FF89D3H   LINE      CODE     ---       #54
      00FF89DBH   LINE      CODE     ---       #55
      00FF89E3H   LINE      CODE     ---       #56
      ---         BLOCKEND  ---      ---       LVL=0
      DR0         REGSYM    ---      DWORD     us
      WR6         REGSYM    ---      WORD      i

      ---         MODULE    ---      ---       zf_eeprom
      000000D0H   SFRSYM    DATA     BYTE      PSW
L251 LINKER/LOCATER V4.66.93.0                                                        06/25/2023  18:36:41  PAGE 29


      0000009DH   SFRSYM    DATA     BYTE      IRCBAND
      000000D0H.5 SFRSYM    DATA     BIT       F0
      00000097H   SFRSYM    DATA     BYTE      AUXR2
      000000C6H   SFRSYM    DATA     BYTE      IAP_TRIG
      000000EFH   SFRSYM    DATA     BYTE      AUXINTIF
      000000FDH   SFRSYM    DATA     BYTE      S4CON
      000000ACH   SFRSYM    DATA     BYTE      S3CON
      0000009AH   SFRSYM    DATA     BYTE      S2CON
      000000B7H   SFRSYM    DATA     BYTE      IPH
      000000CDH   SFRSYM    DATA     BYTE      SPSTAT
      000000DDH   SFRSYM    DATA     BYTE      T4T3M
      000000C1H   SFRSYM    DATA     BYTE      WDT_CONTR
      000000C2H   SFRSYM    DATA     BYTE      IAP_DATA
      000000DFH   SFRSYM    DATA     BYTE      IP3
      000000F4H   SFRSYM    DATA     BYTE      USBCON
      000000B5H   SFRSYM    DATA     BYTE      IP2
      000000FFH   SFRSYM    DATA     BYTE      RSTCFG
      000000C7H   SFRSYM    DATA     BYTE      IAP_CONTR
      000000F9H   SFRSYM    DATA     BYTE      LINICR
      0000008EH   SFRSYM    DATA     BYTE      AUXR
      000000AFH   SFRSYM    DATA     BYTE      IE2
      00000088H   SFRSYM    DATA     BYTE      TCON
      00000098H   SFRSYM    DATA     BYTE      SCON
      000000F5H   SFRSYM    DATA     BYTE      IAP_TPS
      000000F1H   SFRSYM    DATA     BYTE      CANICR
      00000087H   SFRSYM    DATA     BYTE      PCON
      000000BCH   SFRSYM    DATA     BYTE      ADC_CONTR
      000000E7H   SFRSYM    DATA     BYTE      CMPCR2
      000000E6H   SFRSYM    DATA     BYTE      CMPCR1
      000000C4H   SFRSYM    DATA     BYTE      IAP_ADDRL
      000000C3H   SFRSYM    DATA     BYTE      IAP_ADDRH
      000000F6H   SFRSYM    DATA     BYTE      IAP_ADDRE
      000000B8H   SFRSYM    DATA     BYTE      IP
      0000008FH   SFRSYM    DATA     BYTE      INTCLKO
      000000EEH   SFRSYM    DATA     BYTE      IP3H
      000000B6H   SFRSYM    DATA     BYTE      IP2H
      000000C5H   SFRSYM    DATA     BYTE      IAP_CMD
      000000A8H   SFRSYM    DATA     BYTE      IE
      000000BBH   SFRSYM    DATA     BYTE      P_SW3
      000000BAH   SFRSYM    DATA     BYTE      P_SW2
      000000A2H   SFRSYM    DATA     BYTE      P_SW1
      000000CEH   SFRSYM    DATA     BYTE      SPCTL
      000000F8H   SFRSYM    DATA     BYTE      P7
      000000A8H.7 SFRSYM    DATA     BIT       EA
      000000E8H   SFRSYM    DATA     BYTE      P6
      000000C8H   SFRSYM    DATA     BYTE      P5
      000000C0H   SFRSYM    DATA     BYTE      P4
      000000B0H   SFRSYM    DATA     BYTE      P3
      000000A0H   SFRSYM    DATA     BYTE      P2
      00000090H   SFRSYM    DATA     BYTE      P1
      00000080H   SFRSYM    DATA     BYTE      P0
      R11         REGSYM    ---      BYTE      write_time
      REG=3       REGSYM    ---      ---       buf
      REG=3       REGSYM    ---      ---       buf
      WR6         REGSYM    ---      WORD      addr
      REG=3       REGSYM    ---      ---       buf
      WR6         REGSYM    ---      WORD      i

      ---         MODULE    ---      ---       zf_exti
      000000D0H   SFRSYM    DATA     BYTE      PSW
      0000009DH   SFRSYM    DATA     BYTE      IRCBAND
      00000097H   SFRSYM    DATA     BYTE      AUXR2
      000000EFH   SFRSYM    DATA     BYTE      AUXINTIF
      000000FDH   SFRSYM    DATA     BYTE      S4CON
      000000ACH   SFRSYM    DATA     BYTE      S3CON
L251 LINKER/LOCATER V4.66.93.0                                                        06/25/2023  18:36:41  PAGE 30


      0000009AH   SFRSYM    DATA     BYTE      S2CON
      000000B7H   SFRSYM    DATA     BYTE      IPH
      000000CDH   SFRSYM    DATA     BYTE      SPSTAT
      000000DDH   SFRSYM    DATA     BYTE      T4T3M
      000000C1H   SFRSYM    DATA     BYTE      WDT_CONTR
      00000088H.2 SFRSYM    DATA     BIT       IT1
      000000A8H.2 SFRSYM    DATA     BIT       EX1
      00000088H.0 SFRSYM    DATA     BIT       IT0
      000000A8H.0 SFRSYM    DATA     BIT       EX0
      000000DFH   SFRSYM    DATA     BYTE      IP3
      000000F4H   SFRSYM    DATA     BYTE      USBCON
      000000B5H   SFRSYM    DATA     BYTE      IP2
      000000FFH   SFRSYM    DATA     BYTE      RSTCFG
      000000F9H   SFRSYM    DATA     BYTE      LINICR
      0000008EH   SFRSYM    DATA     BYTE      AUXR
      000000AFH   SFRSYM    DATA     BYTE      IE2
      00000088H   SFRSYM    DATA     BYTE      TCON
      00000098H   SFRSYM    DATA     BYTE      SCON
      000000F1H   SFRSYM    DATA     BYTE      CANICR
      00000087H   SFRSYM    DATA     BYTE      PCON
      000000BCH   SFRSYM    DATA     BYTE      ADC_CONTR
      000000E7H   SFRSYM    DATA     BYTE      CMPCR2
      000000E6H   SFRSYM    DATA     BYTE      CMPCR1
      000000B8H   SFRSYM    DATA     BYTE      IP
      0000008FH   SFRSYM    DATA     BYTE      INTCLKO
      000000EEH   SFRSYM    DATA     BYTE      IP3H
      000000B6H   SFRSYM    DATA     BYTE      IP2H
      000000A8H   SFRSYM    DATA     BYTE      IE
      000000BBH   SFRSYM    DATA     BYTE      P_SW3
      000000BAH   SFRSYM    DATA     BYTE      P_SW2
      000000A2H   SFRSYM    DATA     BYTE      P_SW1
      000000CEH   SFRSYM    DATA     BYTE      SPCTL
      000000F8H   SFRSYM    DATA     BYTE      P7
      000000E8H   SFRSYM    DATA     BYTE      P6
      000000C8H   SFRSYM    DATA     BYTE      P5
      000000C0H   SFRSYM    DATA     BYTE      P4
      000000B0H   SFRSYM    DATA     BYTE      P3
      000000A0H   SFRSYM    DATA     BYTE      P2
      00000090H   SFRSYM    DATA     BYTE      P1
      00000080H   SFRSYM    DATA     BYTE      P0
      WR4         REGSYM    ---      INT       int_n
      WR2         REGSYM    ---      INT       mode

      ---         MODULE    ---      ---       zf_gpio
      00FF6A9CH   PUBLIC    CODE     ---       gpio_mode
      00000094H   SFRSYM    DATA     BYTE      P0M0
      000000D0H   SFRSYM    DATA     BYTE      PSW
      0000009DH   SFRSYM    DATA     BYTE      IRCBAND
      00000097H   SFRSYM    DATA     BYTE      AUXR2
      000000EFH   SFRSYM    DATA     BYTE      AUXINTIF
      000000FDH   SFRSYM    DATA     BYTE      S4CON
      000000ACH   SFRSYM    DATA     BYTE      S3CON
      0000009AH   SFRSYM    DATA     BYTE      S2CON
      000000B7H   SFRSYM    DATA     BYTE      IPH
      000000CDH   SFRSYM    DATA     BYTE      SPSTAT
      000000DDH   SFRSYM    DATA     BYTE      T4T3M
      000000C1H   SFRSYM    DATA     BYTE      WDT_CONTR
      000000DFH   SFRSYM    DATA     BYTE      IP3
      000000F4H   SFRSYM    DATA     BYTE      USBCON
      000000B5H   SFRSYM    DATA     BYTE      IP2
      000000FFH   SFRSYM    DATA     BYTE      RSTCFG
      000000F9H   SFRSYM    DATA     BYTE      LINICR
      0000008EH   SFRSYM    DATA     BYTE      AUXR
      000000AFH   SFRSYM    DATA     BYTE      IE2
      00000088H   SFRSYM    DATA     BYTE      TCON
L251 LINKER/LOCATER V4.66.93.0                                                        06/25/2023  18:36:41  PAGE 31


      00000098H   SFRSYM    DATA     BYTE      SCON
      000000F1H   SFRSYM    DATA     BYTE      CANICR
      00000087H   SFRSYM    DATA     BYTE      PCON
      000000BCH   SFRSYM    DATA     BYTE      ADC_CONTR
      000000E7H   SFRSYM    DATA     BYTE      CMPCR2
      000000E6H   SFRSYM    DATA     BYTE      CMPCR1
      000000B8H   SFRSYM    DATA     BYTE      IP
      0000008FH   SFRSYM    DATA     BYTE      INTCLKO
      000000EEH   SFRSYM    DATA     BYTE      IP3H
      000000B6H   SFRSYM    DATA     BYTE      IP2H
      000000A8H   SFRSYM    DATA     BYTE      IE
      000000BBH   SFRSYM    DATA     BYTE      P_SW3
      000000BAH   SFRSYM    DATA     BYTE      P_SW2
      000000A2H   SFRSYM    DATA     BYTE      P_SW1
      000000CEH   SFRSYM    DATA     BYTE      SPCTL
      000000F8H   SFRSYM    DATA     BYTE      P7
      000000E1H   SFRSYM    DATA     BYTE      P7M1
      000000E8H   SFRSYM    DATA     BYTE      P6
      000000C8H   SFRSYM    DATA     BYTE      P5
      000000CBH   SFRSYM    DATA     BYTE      P6M1
      000000E2H   SFRSYM    DATA     BYTE      P7M0
      000000C0H   SFRSYM    DATA     BYTE      P4
      000000C9H   SFRSYM    DATA     BYTE      P5M1
      000000CCH   SFRSYM    DATA     BYTE      P6M0
      000000B0H   SFRSYM    DATA     BYTE      P3
      000000B3H   SFRSYM    DATA     BYTE      P4M1
      000000CAH   SFRSYM    DATA     BYTE      P5M0
      000000A0H   SFRSYM    DATA     BYTE      P2
      000000B1H   SFRSYM    DATA     BYTE      P3M1
      000000B4H   SFRSYM    DATA     BYTE      P4M0
      00000090H   SFRSYM    DATA     BYTE      P1
      00000095H   SFRSYM    DATA     BYTE      P2M1
      000000B2H   SFRSYM    DATA     BYTE      P3M0
      00000080H   SFRSYM    DATA     BYTE      P0
      00000091H   SFRSYM    DATA     BYTE      P1M1
      00000096H   SFRSYM    DATA     BYTE      P2M0
      00000092H   SFRSYM    DATA     BYTE      P1M0
      00000093H   SFRSYM    DATA     BYTE      P0M1
      WR4         REGSYM    ---      INT       pin
      WR2         REGSYM    ---      INT       pull

      00FF6A9CH   BLOCK     CODE     ---       LVL=0
      WR4         REGSYM    ---      INT       pin
      WR2         REGSYM    ---      INT       mode
      00FF6A9CH   LINE      CODE     ---       #54
      00FF6AA0H   LINE      CODE     ---       #56
      00FF6AA7H   LINE      CODE     ---       #58
      00FF6AAFH   LINE      CODE     ---       #60
      00FF6AC7H   LINE      CODE     ---       #61
      00FF6AC9H   LINE      CODE     ---       #62
      00FF6AC9H   LINE      CODE     ---       #63
      00FF6ACFH   LINE      CODE     ---       #65
      00FF6AE7H   LINE      CODE     ---       #66
      00FF6AE9H   LINE      CODE     ---       #67
      00FF6AE9H   LINE      CODE     ---       #68
      00FF6AEFH   LINE      CODE     ---       #70
      00FF6B07H   LINE      CODE     ---       #71
      00FF6B09H   LINE      CODE     ---       #72
      00FF6B09H   LINE      CODE     ---       #74
      00FF6B0FH   LINE      CODE     ---       #76
      00FF6B27H   LINE      CODE     ---       #77
      00FF6B29H   LINE      CODE     ---       #78
      00FF6B29H   LINE      CODE     ---       #79
      00FF6B2FH   LINE      CODE     ---       #81
      00FF6B47H   LINE      CODE     ---       #82
L251 LINKER/LOCATER V4.66.93.0                                                        06/25/2023  18:36:41  PAGE 32


      00FF6B49H   LINE      CODE     ---       #83
      00FF6B49H   LINE      CODE     ---       #84
      00FF6B4FH   LINE      CODE     ---       #86
      00FF6B67H   LINE      CODE     ---       #87
      00FF6B69H   LINE      CODE     ---       #88
      00FF6B69H   LINE      CODE     ---       #89
      00FF6B6FH   LINE      CODE     ---       #91
      00FF6B87H   LINE      CODE     ---       #92
      00FF6B89H   LINE      CODE     ---       #93
      00FF6B89H   LINE      CODE     ---       #94
      00FF6B92H   LINE      CODE     ---       #96
      00FF6BAAH   LINE      CODE     ---       #97
      00FF6BACH   LINE      CODE     ---       #98
      00FF6BADH   LINE      CODE     ---       #100
      00FF6BB6H   LINE      CODE     ---       #102
      00FF6BBEH   LINE      CODE     ---       #104
      00FF6BD3H   LINE      CODE     ---       #105
      00FF6BD7H   LINE      CODE     ---       #106
      00FF6BD7H   LINE      CODE     ---       #107
      00FF6BDDH   LINE      CODE     ---       #109
      00FF6BF2H   LINE      CODE     ---       #110
      00FF6BF6H   LINE      CODE     ---       #111
      00FF6BF6H   LINE      CODE     ---       #112
      00FF6BFCH   LINE      CODE     ---       #114
      00FF6C11H   LINE      CODE     ---       #115
      00FF6C15H   LINE      CODE     ---       #116
      00FF6C15H   LINE      CODE     ---       #118
      00FF6C1BH   LINE      CODE     ---       #120
      00FF6C30H   LINE      CODE     ---       #121
      00FF6C34H   LINE      CODE     ---       #122
      00FF6C34H   LINE      CODE     ---       #123
      00FF6C3AH   LINE      CODE     ---       #125
      00FF6C4FH   LINE      CODE     ---       #126
      00FF6C53H   LINE      CODE     ---       #127
      00FF6C53H   LINE      CODE     ---       #128
      00FF6C59H   LINE      CODE     ---       #130
      00FF6C6EH   LINE      CODE     ---       #131
      00FF6C72H   LINE      CODE     ---       #132
      00FF6C72H   LINE      CODE     ---       #133
      00FF6C78H   LINE      CODE     ---       #135
      00FF6C8DH   LINE      CODE     ---       #136
      00FF6C91H   LINE      CODE     ---       #137
      00FF6C91H   LINE      CODE     ---       #138
      00FF6C9AH   LINE      CODE     ---       #140
      00FF6CB1H   LINE      CODE     ---       #141
      00FF6CB1H   LINE      CODE     ---       #142
      00FF6CB4H   LINE      CODE     ---       #145
      00FF6CBDH   LINE      CODE     ---       #147
      00FF6CC5H   LINE      CODE     ---       #149
      00FF6CD8H   LINE      CODE     ---       #150
      00FF6CDCH   LINE      CODE     ---       #151
      00FF6CDCH   LINE      CODE     ---       #152
      00FF6CE2H   LINE      CODE     ---       #154
      00FF6CF5H   LINE      CODE     ---       #155
      00FF6CF9H   LINE      CODE     ---       #156
      00FF6CF9H   LINE      CODE     ---       #157
      00FF6CFFH   LINE      CODE     ---       #159
      00FF6D12H   LINE      CODE     ---       #160
      00FF6D16H   LINE      CODE     ---       #161
      00FF6D16H   LINE      CODE     ---       #163
      00FF6D1CH   LINE      CODE     ---       #165
      00FF6D2FH   LINE      CODE     ---       #166
      00FF6D33H   LINE      CODE     ---       #167
      00FF6D33H   LINE      CODE     ---       #168
      00FF6D39H   LINE      CODE     ---       #170
L251 LINKER/LOCATER V4.66.93.0                                                        06/25/2023  18:36:41  PAGE 33


      00FF6D4CH   LINE      CODE     ---       #171
      00FF6D50H   LINE      CODE     ---       #172
      00FF6D50H   LINE      CODE     ---       #173
      00FF6D56H   LINE      CODE     ---       #175
      00FF6D69H   LINE      CODE     ---       #176
      00FF6D6DH   LINE      CODE     ---       #177
      00FF6D6DH   LINE      CODE     ---       #178
      00FF6D73H   LINE      CODE     ---       #180
      00FF6D86H   LINE      CODE     ---       #181
      00FF6D8AH   LINE      CODE     ---       #182
      00FF6D8AH   LINE      CODE     ---       #183
      00FF6D93H   LINE      CODE     ---       #185
      00FF6DA6H   LINE      CODE     ---       #186
      00FF6DAAH   LINE      CODE     ---       #187
      00FF6DABH   LINE      CODE     ---       #189
      00FF6DB4H   LINE      CODE     ---       #191
      00FF6DBCH   LINE      CODE     ---       #193
      00FF6DCFH   LINE      CODE     ---       #194
      00FF6DD1H   LINE      CODE     ---       #195
      00FF6DD1H   LINE      CODE     ---       #196
      00FF6DD7H   LINE      CODE     ---       #198
      00FF6DEAH   LINE      CODE     ---       #199
      00FF6DECH   LINE      CODE     ---       #200
      00FF6DECH   LINE      CODE     ---       #201
      00FF6DF2H   LINE      CODE     ---       #203
      00FF6E05H   LINE      CODE     ---       #204
      00FF6E07H   LINE      CODE     ---       #205
      00FF6E07H   LINE      CODE     ---       #207
      00FF6E0DH   LINE      CODE     ---       #209
      00FF6E20H   LINE      CODE     ---       #210
      00FF6E22H   LINE      CODE     ---       #211
      00FF6E22H   LINE      CODE     ---       #212
      00FF6E28H   LINE      CODE     ---       #214
      00FF6E3BH   LINE      CODE     ---       #215
      00FF6E3DH   LINE      CODE     ---       #216
      00FF6E3DH   LINE      CODE     ---       #217
      00FF6E43H   LINE      CODE     ---       #219
      00FF6E56H   LINE      CODE     ---       #220
      00FF6E58H   LINE      CODE     ---       #221
      00FF6E58H   LINE      CODE     ---       #222
      00FF6E5EH   LINE      CODE     ---       #224
      00FF6E71H   LINE      CODE     ---       #225
      00FF6E73H   LINE      CODE     ---       #226
      00FF6E73H   LINE      CODE     ---       #227
      00FF6E79H   LINE      CODE     ---       #229
      00FF6E8EH   LINE      CODE     ---       #230
      00FF6E92H   LINE      CODE     ---       #231
      00FF6E92H   LINE      CODE     ---       #233
      ---         BLOCKEND  ---      ---       LVL=0

      ---         MODULE    ---      ---       zf_iic
      000000D0H   SFRSYM    DATA     BYTE      PSW
      0000009DH   SFRSYM    DATA     BYTE      IRCBAND
      00000097H   SFRSYM    DATA     BYTE      AUXR2
      000000EFH   SFRSYM    DATA     BYTE      AUXINTIF
      000000FDH   SFRSYM    DATA     BYTE      S4CON
      000000ACH   SFRSYM    DATA     BYTE      S3CON
      0000009AH   SFRSYM    DATA     BYTE      S2CON
      000000B7H   SFRSYM    DATA     BYTE      IPH
      000000CDH   SFRSYM    DATA     BYTE      SPSTAT
      000000DDH   SFRSYM    DATA     BYTE      T4T3M
      000000C1H   SFRSYM    DATA     BYTE      WDT_CONTR
      000000DFH   SFRSYM    DATA     BYTE      IP3
      000000F4H   SFRSYM    DATA     BYTE      USBCON
      000000B5H   SFRSYM    DATA     BYTE      IP2
L251 LINKER/LOCATER V4.66.93.0                                                        06/25/2023  18:36:41  PAGE 34


      000000FFH   SFRSYM    DATA     BYTE      RSTCFG
      000000F9H   SFRSYM    DATA     BYTE      LINICR
      0000008EH   SFRSYM    DATA     BYTE      AUXR
      000000AFH   SFRSYM    DATA     BYTE      IE2
      00000088H   SFRSYM    DATA     BYTE      TCON
      00000098H   SFRSYM    DATA     BYTE      SCON
      000000F1H   SFRSYM    DATA     BYTE      CANICR
      00000087H   SFRSYM    DATA     BYTE      PCON
      000000BCH   SFRSYM    DATA     BYTE      ADC_CONTR
      000000E7H   SFRSYM    DATA     BYTE      CMPCR2
      000000E6H   SFRSYM    DATA     BYTE      CMPCR1
      000000B8H   SFRSYM    DATA     BYTE      IP
      0000008FH   SFRSYM    DATA     BYTE      INTCLKO
      000000EEH   SFRSYM    DATA     BYTE      IP3H
      000000B6H   SFRSYM    DATA     BYTE      IP2H
      000000A8H   SFRSYM    DATA     BYTE      IE
      000000BBH   SFRSYM    DATA     BYTE      P_SW3
      000000BAH   SFRSYM    DATA     BYTE      P_SW2
      000000A2H   SFRSYM    DATA     BYTE      P_SW1
      000000CEH   SFRSYM    DATA     BYTE      SPCTL
      000000F8H   SFRSYM    DATA     BYTE      P7
      000000E8H   SFRSYM    DATA     BYTE      P6
      000000C8H   SFRSYM    DATA     BYTE      P5
      000000C0H   SFRSYM    DATA     BYTE      P4
      000000B0H   SFRSYM    DATA     BYTE      P3
      000000A0H   SFRSYM    DATA     BYTE      P2
      00000090H   SFRSYM    DATA     BYTE      P1
      00000080H   SFRSYM    DATA     BYTE      P0
      WR6         REGSYM    ---      WORD      x
      R10         REGSYM    ---      BYTE      i
      WR12        REGSYM    ---      WORD      count
      R15         REGSYM    ---      BYTE      ret
      R11         REGSYM    ---      BYTE      ret
      R11         REGSYM    ---      CHAR      dat
      R11         REGSYM    ---      BYTE      ret
      R11         REGSYM    ---      BYTE      ret
      R11         REGSYM    ---      BYTE      ret
      R11         REGSYM    ---      BYTE      ret
      WR6         REGSYM    ---      INT       iic_n
      R13         REGSYM    ---      BYTE      dev_add
      R14         REGSYM    ---      BYTE      reg
      R15         REGSYM    ---      BYTE      dat
      R15         REGSYM    ---      BYTE      dev_add
      R14         REGSYM    ---      BYTE      reg
      REG=3       REGSYM    ---      ---       dat
      WR6         REGSYM    ---      INT       iic_n

      ---         MODULE    ---      ---       zf_nvic
      000000D0H   SFRSYM    DATA     BYTE      PSW
      0000009DH   SFRSYM    DATA     BYTE      IRCBAND
      00000097H   SFRSYM    DATA     BYTE      AUXR2
      000000EFH   SFRSYM    DATA     BYTE      AUXINTIF
      000000FDH   SFRSYM    DATA     BYTE      S4CON
      000000ACH   SFRSYM    DATA     BYTE      S3CON
      0000009AH   SFRSYM    DATA     BYTE      S2CON
      000000B7H   SFRSYM    DATA     BYTE      IPH
      000000CDH   SFRSYM    DATA     BYTE      SPSTAT
      000000DDH   SFRSYM    DATA     BYTE      T4T3M
      000000C1H   SFRSYM    DATA     BYTE      WDT_CONTR
      000000DFH   SFRSYM    DATA     BYTE      IP3
      000000F4H   SFRSYM    DATA     BYTE      USBCON
      000000B5H   SFRSYM    DATA     BYTE      IP2
      000000FFH   SFRSYM    DATA     BYTE      RSTCFG
      000000F9H   SFRSYM    DATA     BYTE      LINICR
      0000008EH   SFRSYM    DATA     BYTE      AUXR
L251 LINKER/LOCATER V4.66.93.0                                                        06/25/2023  18:36:41  PAGE 35


      000000AFH   SFRSYM    DATA     BYTE      IE2
      00000088H   SFRSYM    DATA     BYTE      TCON
      00000098H   SFRSYM    DATA     BYTE      SCON
      000000F1H   SFRSYM    DATA     BYTE      CANICR
      00000087H   SFRSYM    DATA     BYTE      PCON
      000000BCH   SFRSYM    DATA     BYTE      ADC_CONTR
      000000E7H   SFRSYM    DATA     BYTE      CMPCR2
      000000E6H   SFRSYM    DATA     BYTE      CMPCR1
      000000B8H   SFRSYM    DATA     BYTE      IP
      0000008FH   SFRSYM    DATA     BYTE      INTCLKO
      000000EEH   SFRSYM    DATA     BYTE      IP3H
      000000B6H   SFRSYM    DATA     BYTE      IP2H
      000000A8H   SFRSYM    DATA     BYTE      IE
      000000BBH   SFRSYM    DATA     BYTE      P_SW3
      000000BAH   SFRSYM    DATA     BYTE      P_SW2
      000000A2H   SFRSYM    DATA     BYTE      P_SW1
      000000CEH   SFRSYM    DATA     BYTE      SPCTL
      000000F8H   SFRSYM    DATA     BYTE      P7
      000000E8H   SFRSYM    DATA     BYTE      P6
      000000C8H   SFRSYM    DATA     BYTE      P5
      000000C0H   SFRSYM    DATA     BYTE      P4
      000000B0H   SFRSYM    DATA     BYTE      P3
      000000A0H   SFRSYM    DATA     BYTE      P2
      00000090H   SFRSYM    DATA     BYTE      P1
      00000080H   SFRSYM    DATA     BYTE      P0
      WR4         REGSYM    ---      INT       irqn
      R3          REGSYM    ---      BYTE      priority

      ---         MODULE    ---      ---       zf_pwm
      00FF718FH   PUBLIC    CODE     ---       pwm_set_gpio
      00FF6E93H   PUBLIC    CODE     ---       pwm_init
      00FF8F65H   PUBLIC    HCONST   ---       PWM_CCR_ADDR
      00FF8F85H   PUBLIC    HCONST   ---       PWM_ARR_ADDR
      00FF8F8DH   PUBLIC    HCONST   ---       PWM_CCER_ADDR
      00FF8F9DH   PUBLIC    HCONST   ---       PWM_CCMR_ADDR
      00000682H   PUBLIC    EDATA    BYTE      ?pwm_init?BYTE
      000000D0H   SFRSYM    DATA     BYTE      PSW
      0000009DH   SFRSYM    DATA     BYTE      IRCBAND
      00000097H   SFRSYM    DATA     BYTE      AUXR2
      000000EFH   SFRSYM    DATA     BYTE      AUXINTIF
      000000FDH   SFRSYM    DATA     BYTE      S4CON
      000000ACH   SFRSYM    DATA     BYTE      S3CON
      0000009AH   SFRSYM    DATA     BYTE      S2CON
      000000B7H   SFRSYM    DATA     BYTE      IPH
      000000CDH   SFRSYM    DATA     BYTE      SPSTAT
      000000DDH   SFRSYM    DATA     BYTE      T4T3M
      000000C1H   SFRSYM    DATA     BYTE      WDT_CONTR
      000000DFH   SFRSYM    DATA     BYTE      IP3
      000000F4H   SFRSYM    DATA     BYTE      USBCON
      000000B5H   SFRSYM    DATA     BYTE      IP2
      000000FFH   SFRSYM    DATA     BYTE      RSTCFG
      000000F9H   SFRSYM    DATA     BYTE      LINICR
      0000008EH   SFRSYM    DATA     BYTE      AUXR
      000000AFH   SFRSYM    DATA     BYTE      IE2
      00000088H   SFRSYM    DATA     BYTE      TCON
      00000098H   SFRSYM    DATA     BYTE      SCON
      000000F1H   SFRSYM    DATA     BYTE      CANICR
      00000087H   SFRSYM    DATA     BYTE      PCON
      000000BCH   SFRSYM    DATA     BYTE      ADC_CONTR
      000000E7H   SFRSYM    DATA     BYTE      CMPCR2
      000000E6H   SFRSYM    DATA     BYTE      CMPCR1
      000000B8H   SFRSYM    DATA     BYTE      IP
      0000008FH   SFRSYM    DATA     BYTE      INTCLKO
      000000EEH   SFRSYM    DATA     BYTE      IP3H
      000000B6H   SFRSYM    DATA     BYTE      IP2H
L251 LINKER/LOCATER V4.66.93.0                                                        06/25/2023  18:36:41  PAGE 36


      000000A8H   SFRSYM    DATA     BYTE      IE
      000000BBH   SFRSYM    DATA     BYTE      P_SW3
      000000BAH   SFRSYM    DATA     BYTE      P_SW2
      000000A2H   SFRSYM    DATA     BYTE      P_SW1
      000000CEH   SFRSYM    DATA     BYTE      SPCTL
      000000F8H   SFRSYM    DATA     BYTE      P7
      000000E8H   SFRSYM    DATA     BYTE      P6
      000000C8H   SFRSYM    DATA     BYTE      P5
      000000C0H   SFRSYM    DATA     BYTE      P4
      000000B0H   SFRSYM    DATA     BYTE      P3
      000000A0H   SFRSYM    DATA     BYTE      P2
      00000090H   SFRSYM    DATA     BYTE      P1
      00000080H   SFRSYM    DATA     BYTE      P0

      00FF718FH   BLOCK     CODE     ---       LVL=0
      WR6         REGSYM    ---      INT       pwmch
      00FF718FH   LINE      CODE     ---       #49
      00FF718FH   LINE      CODE     ---       #51
      00FF7302H   LINE      CODE     ---       #53
      00FF7302H   LINE      CODE     ---       #55
      00FF7306H   LINE      CODE     ---       #56
      00FF7309H   LINE      CODE     ---       #58
      00FF7309H   LINE      CODE     ---       #60
      00FF730DH   LINE      CODE     ---       #61
      00FF7310H   LINE      CODE     ---       #63
      00FF7310H   LINE      CODE     ---       #65
      00FF7314H   LINE      CODE     ---       #66
      00FF7317H   LINE      CODE     ---       #68
      00FF7317H   LINE      CODE     ---       #70
      00FF731BH   LINE      CODE     ---       #71
      00FF731EH   LINE      CODE     ---       #73
      00FF731EH   LINE      CODE     ---       #75
      00FF7322H   LINE      CODE     ---       #76
      00FF7325H   LINE      CODE     ---       #78
      00FF7325H   LINE      CODE     ---       #80
      00FF7329H   LINE      CODE     ---       #81
      00FF732CH   LINE      CODE     ---       #84
      00FF732CH   LINE      CODE     ---       #86
      00FF7330H   LINE      CODE     ---       #87
      00FF7333H   LINE      CODE     ---       #89
      00FF7333H   LINE      CODE     ---       #91
      00FF7337H   LINE      CODE     ---       #92
      00FF733AH   LINE      CODE     ---       #94
      00FF733AH   LINE      CODE     ---       #96
      00FF733EH   LINE      CODE     ---       #97
      00FF7341H   LINE      CODE     ---       #99
      00FF7341H   LINE      CODE     ---       #101
      00FF7345H   LINE      CODE     ---       #102
      00FF7348H   LINE      CODE     ---       #104
      00FF7348H   LINE      CODE     ---       #106
      00FF734CH   LINE      CODE     ---       #107
      00FF734FH   LINE      CODE     ---       #109
      00FF734FH   LINE      CODE     ---       #111
      00FF7353H   LINE      CODE     ---       #112
      00FF7356H   LINE      CODE     ---       #115
      00FF7356H   LINE      CODE     ---       #117
      00FF735AH   LINE      CODE     ---       #118
      00FF735CH   LINE      CODE     ---       #120
      00FF735CH   LINE      CODE     ---       #122
      00FF7360H   LINE      CODE     ---       #123
      00FF7362H   LINE      CODE     ---       #125
      00FF7362H   LINE      CODE     ---       #127
      00FF7366H   LINE      CODE     ---       #128
      00FF7368H   LINE      CODE     ---       #130
      00FF7368H   LINE      CODE     ---       #132
L251 LINKER/LOCATER V4.66.93.0                                                        06/25/2023  18:36:41  PAGE 37


      00FF736CH   LINE      CODE     ---       #133
      00FF736EH   LINE      CODE     ---       #135
      00FF736EH   LINE      CODE     ---       #137
      00FF7372H   LINE      CODE     ---       #138
      00FF7374H   LINE      CODE     ---       #140
      00FF7374H   LINE      CODE     ---       #142
      00FF7378H   LINE      CODE     ---       #143
      00FF737AH   LINE      CODE     ---       #147
      00FF737AH   LINE      CODE     ---       #149
      00FF737EH   LINE      CODE     ---       #150
      00FF7380H   LINE      CODE     ---       #152
      00FF7380H   LINE      CODE     ---       #154
      00FF7384H   LINE      CODE     ---       #155
      00FF7386H   LINE      CODE     ---       #157
      00FF7386H   LINE      CODE     ---       #159
      00FF738AH   LINE      CODE     ---       #160
      00FF738CH   LINE      CODE     ---       #162
      00FF738CH   LINE      CODE     ---       #164
      00FF7390H   LINE      CODE     ---       #165
      00FF7392H   LINE      CODE     ---       #167
      00FF7392H   LINE      CODE     ---       #169
      00FF7396H   LINE      CODE     ---       #170
      00FF7398H   LINE      CODE     ---       #172
      00FF7398H   LINE      CODE     ---       #174
      00FF739CH   LINE      CODE     ---       #175
      00FF739EH   LINE      CODE     ---       #177
      00FF739EH   LINE      CODE     ---       #179
      00FF73A2H   LINE      CODE     ---       #180
      00FF73A4H   LINE      CODE     ---       #182
      00FF73A4H   LINE      CODE     ---       #184
      00FF73A8H   LINE      CODE     ---       #185
      00FF73AAH   LINE      CODE     ---       #189
      00FF73AAH   LINE      CODE     ---       #191
      00FF73AEH   LINE      CODE     ---       #192
      00FF73B0H   LINE      CODE     ---       #194
      00FF73B0H   LINE      CODE     ---       #196
      00FF73B4H   LINE      CODE     ---       #197
      00FF73B6H   LINE      CODE     ---       #199
      00FF73B6H   LINE      CODE     ---       #201
      00FF73B8H   LINE      CODE     ---       #202
      00FF73BAH   LINE      CODE     ---       #204
      00FF73BAH   LINE      CODE     ---       #206
      00FF73BEH   LINE      CODE     ---       #207
      00FF73C0H   LINE      CODE     ---       #210
      00FF73C0H   LINE      CODE     ---       #212
      00FF73C4H   LINE      CODE     ---       #213
      00FF73C6H   LINE      CODE     ---       #215
      00FF73C6H   LINE      CODE     ---       #217
      00FF73CAH   LINE      CODE     ---       #218
      00FF73CCH   LINE      CODE     ---       #220
      00FF73CCH   LINE      CODE     ---       #222
      00FF73D2H   LINE      CODE     ---       #223
      00FF73D4H   LINE      CODE     ---       #225
      00FF73D4H   LINE      CODE     ---       #227
      00FF73DCH   LINE      CODE     ---       #228
      00FF73DEH   LINE      CODE     ---       #232
      00FF73DEH   LINE      CODE     ---       #234
      00FF73E6H   LINE      CODE     ---       #235
      00FF73E8H   LINE      CODE     ---       #237
      00FF73E8H   LINE      CODE     ---       #239
      00FF73F0H   LINE      CODE     ---       #240
      00FF73F2H   LINE      CODE     ---       #242
      00FF73F2H   LINE      CODE     ---       #244
      00FF73FAH   LINE      CODE     ---       #245
      00FF73FCH   LINE      CODE     ---       #247
L251 LINKER/LOCATER V4.66.93.0                                                        06/25/2023  18:36:41  PAGE 38


      00FF73FCH   LINE      CODE     ---       #249
      00FF7404H   LINE      CODE     ---       #250
      00FF7406H   LINE      CODE     ---       #254
      00FF7406H   LINE      CODE     ---       #256
      00FF740EH   LINE      CODE     ---       #257
      00FF7410H   LINE      CODE     ---       #259
      00FF7410H   LINE      CODE     ---       #261
      00FF7418H   LINE      CODE     ---       #262
      00FF741AH   LINE      CODE     ---       #264
      00FF741AH   LINE      CODE     ---       #266
      00FF7422H   LINE      CODE     ---       #267
      00FF7424H   LINE      CODE     ---       #269
      00FF7424H   LINE      CODE     ---       #271
      00FF742FH   LINE      CODE     ---       #272
      00FF742FH   LINE      CODE     ---       #275
      00FF742FH   LINE      CODE     ---       #277
      ---         BLOCKEND  ---      ---       LVL=0

      00FF6E93H   BLOCK     CODE     ---       LVL=0
      WR14        REGSYM    ---      INT       pwmch
      00000684H   SYMBOL    EDATA    DWORD     freq
      00000688H   SYMBOL    EDATA    DWORD     duty
      00FF6E9BH   BLOCK     CODE     NEAR LAB  LVL=1
      0000068CH   SYMBOL    EDATA    DWORD     match_temp
      DR28        REGSYM    ---      DWORD     period_temp
      WR26        REGSYM    ---      WORD      freq_div
      ---         BLOCKEND  ---      ---       LVL=1
      00FF6E93H   LINE      CODE     ---       #290
      00FF6E9BH   LINE      CODE     ---       #291
      00FF6E9BH   LINE      CODE     ---       #295
      00FF6E9BH   LINE      CODE     ---       #298
      00FF6E9EH   LINE      CODE     ---       #301
      00FF6EA1H   LINE      CODE     ---       #305
      00FF6EB2H   LINE      CODE     ---       #306
      00FF6EB2H   LINE      CODE     ---       #307
      00FF6EBBH   LINE      CODE     ---       #309
      00FF6EC5H   LINE      CODE     ---       #311
      00FF6EE2H   LINE      CODE     ---       #312
      00FF6EE4H   LINE      CODE     ---       #315
      00FF6EECH   LINE      CODE     ---       #316
      00FF6EECH   LINE      CODE     ---       #319
      00FF6EF5H   LINE      CODE     ---       #322
      00FF6F20H   LINE      CODE     ---       #323
      00FF6F41H   LINE      CODE     ---       #326
      00FF6F8DH   LINE      CODE     ---       #329
      00FF6F9CH   LINE      CODE     ---       #330
      00FF6FA7H   LINE      CODE     ---       #332
      00FF6FB0H   LINE      CODE     ---       #333
      00FF6FB6H   LINE      CODE     ---       #334
      00FF6FB9H   LINE      CODE     ---       #337
      00FF6FF1H   LINE      CODE     ---       #338
      00FF7014H   LINE      CODE     ---       #341
      00FF7066H   LINE      CODE     ---       #345
      00FF7075H   LINE      CODE     ---       #346
      00FF7080H   LINE      CODE     ---       #348
      00FF7089H   LINE      CODE     ---       #349
      00FF7096H   LINE      CODE     ---       #350
      00FF7096H   LINE      CODE     ---       #353
      00FF70C2H   LINE      CODE     ---       #354
      00FF70F0H   LINE      CODE     ---       #357
      00FF711CH   LINE      CODE     ---       #358
      00FF714AH   LINE      CODE     ---       #361
      00FF7161H   LINE      CODE     ---       #362
      00FF718CH   LINE      CODE     ---       #367
      ---         BLOCKEND  ---      ---       LVL=0
L251 LINKER/LOCATER V4.66.93.0                                                        06/25/2023  18:36:41  PAGE 39


      WR30        REGSYM    ---      INT       pwmch
      DR24        REGSYM    ---      DWORD     duty
      DR20        REGSYM    ---      DWORD     match_temp
      DR16        REGSYM    ---      DWORD     arr
      WR30        REGSYM    ---      INT       pwmch
      DR24        REGSYM    ---      DWORD     freq
      DR20        REGSYM    ---      DWORD     match_temp
      DR24        REGSYM    ---      DWORD     period_temp
      WR28        REGSYM    ---      WORD      freq_div

      ---         MODULE    ---      ---       zf_spi
      00FF788DH   PUBLIC    CODE     ---       spi_init
      00FF8A43H   PUBLIC    CODE     ---       spi_mosi
      0000067BH   PUBLIC    EDATA    BYTE      ?spi_init?BYTE
      000000CFH   SFRSYM    DATA     BYTE      SPDAT
      000000D0H   SFRSYM    DATA     BYTE      PSW
      0000009DH   SFRSYM    DATA     BYTE      IRCBAND
      00000097H   SFRSYM    DATA     BYTE      AUXR2
      000000EFH   SFRSYM    DATA     BYTE      AUXINTIF
      000000FDH   SFRSYM    DATA     BYTE      S4CON
      000000ACH   SFRSYM    DATA     BYTE      S3CON
      0000009AH   SFRSYM    DATA     BYTE      S2CON
      000000B7H   SFRSYM    DATA     BYTE      IPH
      000000CDH   SFRSYM    DATA     BYTE      SPSTAT
      000000DDH   SFRSYM    DATA     BYTE      T4T3M
      000000C1H   SFRSYM    DATA     BYTE      WDT_CONTR
      000000DFH   SFRSYM    DATA     BYTE      IP3
      000000F4H   SFRSYM    DATA     BYTE      USBCON
      000000B5H   SFRSYM    DATA     BYTE      IP2
      000000FFH   SFRSYM    DATA     BYTE      RSTCFG
      000000F9H   SFRSYM    DATA     BYTE      LINICR
      0000008EH   SFRSYM    DATA     BYTE      AUXR
      000000AFH   SFRSYM    DATA     BYTE      IE2
      00000088H   SFRSYM    DATA     BYTE      TCON
      00000098H   SFRSYM    DATA     BYTE      SCON
      000000F1H   SFRSYM    DATA     BYTE      CANICR
      00000087H   SFRSYM    DATA     BYTE      PCON
      000000BCH   SFRSYM    DATA     BYTE      ADC_CONTR
      000000E7H   SFRSYM    DATA     BYTE      CMPCR2
      000000E6H   SFRSYM    DATA     BYTE      CMPCR1
      000000B8H   SFRSYM    DATA     BYTE      IP
      0000008FH   SFRSYM    DATA     BYTE      INTCLKO
      000000EEH   SFRSYM    DATA     BYTE      IP3H
      000000B6H   SFRSYM    DATA     BYTE      IP2H
      000000A8H   SFRSYM    DATA     BYTE      IE
      000000BBH   SFRSYM    DATA     BYTE      P_SW3
      000000BAH   SFRSYM    DATA     BYTE      P_SW2
      000000A2H   SFRSYM    DATA     BYTE      P_SW1
      000000CEH   SFRSYM    DATA     BYTE      SPCTL
      000000F8H   SFRSYM    DATA     BYTE      P7
      000000E8H   SFRSYM    DATA     BYTE      P6
      000000C8H   SFRSYM    DATA     BYTE      P5
      000000C0H   SFRSYM    DATA     BYTE      P4
      000000B0H   SFRSYM    DATA     BYTE      P3
      000000A0H   SFRSYM    DATA     BYTE      P2
      00000090H   SFRSYM    DATA     BYTE      P1
      00000080H   SFRSYM    DATA     BYTE      P0

      00FF788DH   BLOCK     CODE     ---       LVL=0
      WR14        REGSYM    ---      INT       spi_n
      R13         REGSYM    ---      BYTE      mode
      00000684H   SYMBOL    EDATA    INT       mstr
      00000686H   SYMBOL    EDATA    INT       baud
      00FF788DH   LINE      CODE     ---       #39
      00FF7895H   LINE      CODE     ---       #47
L251 LINKER/LOCATER V4.66.93.0                                                        06/25/2023  18:36:41  PAGE 40


      00FF78A7H   LINE      CODE     ---       #50
      00FF78A7H   LINE      CODE     ---       #51
      00FF78B0H   LINE      CODE     ---       #52
      00FF78B9H   LINE      CODE     ---       #53
      00FF78BDH   LINE      CODE     ---       #54
      00FF78BFH   LINE      CODE     ---       #55
      00FF78BFH   LINE      CODE     ---       #56
      00FF78C8H   LINE      CODE     ---       #57
      00FF78D1H   LINE      CODE     ---       #58
      00FF78D5H   LINE      CODE     ---       #59
      00FF78D7H   LINE      CODE     ---       #60
      00FF78D7H   LINE      CODE     ---       #61
      00FF78E0H   LINE      CODE     ---       #62
      00FF78E9H   LINE      CODE     ---       #63
      00FF78EDH   LINE      CODE     ---       #64
      00FF78EFH   LINE      CODE     ---       #65
      00FF78EFH   LINE      CODE     ---       #66
      00FF78F8H   LINE      CODE     ---       #67
      00FF7901H   LINE      CODE     ---       #68
      00FF790AH   LINE      CODE     ---       #69
      00FF790AH   LINE      CODE     ---       #70
      00FF790AH   LINE      CODE     ---       #72
      00FF790DH   LINE      CODE     ---       #73
      00FF791FH   LINE      CODE     ---       #75
      00FF791FH   LINE      CODE     ---       #76
      00FF7923H   LINE      CODE     ---       #77
      00FF7925H   LINE      CODE     ---       #78
      00FF7925H   LINE      CODE     ---       #79
      00FF7928H   LINE      CODE     ---       #80
      00FF792AH   LINE      CODE     ---       #81
      00FF792AH   LINE      CODE     ---       #82
      00FF792DH   LINE      CODE     ---       #83
      00FF792FH   LINE      CODE     ---       #84
      00FF792FH   LINE      CODE     ---       #85
      00FF7932H   LINE      CODE     ---       #86
      00FF7932H   LINE      CODE     ---       #87
      00FF7932H   LINE      CODE     ---       #89
      00FF7935H   LINE      CODE     ---       #90
      00FF7946H   LINE      CODE     ---       #92
      00FF7946H   LINE      CODE     ---       #93
      00FF7949H   LINE      CODE     ---       #94
      00FF794BH   LINE      CODE     ---       #95
      00FF794BH   LINE      CODE     ---       #96
      00FF794EH   LINE      CODE     ---       #97
      00FF7950H   LINE      CODE     ---       #98
      00FF7950H   LINE      CODE     ---       #99
      00FF7953H   LINE      CODE     ---       #100
      00FF7955H   LINE      CODE     ---       #101
      00FF7955H   LINE      CODE     ---       #102
      00FF7958H   LINE      CODE     ---       #103
      00FF7958H   LINE      CODE     ---       #104
      00FF7958H   LINE      CODE     ---       #107
      00FF7960H   LINE      CODE     ---       #109
      00FF7968H   LINE      CODE     ---       #111
      00FF796BH   LINE      CODE     ---       #112
      00FF796EH   LINE      CODE     ---       #113
      00FF796EH   LINE      CODE     ---       #117
      00FF796EH   LINE      CODE     ---       #118
      00FF7971H   LINE      CODE     ---       #119
      ---         BLOCKEND  ---      ---       LVL=0

      00FF8A43H   BLOCK     CODE     ---       LVL=0
      R11         REGSYM    ---      BYTE      dat
      00FF8A43H   LINE      CODE     ---       #129
      00FF8A43H   LINE      CODE     ---       #131
L251 LINKER/LOCATER V4.66.93.0                                                        06/25/2023  18:36:41  PAGE 41


      00FF8A46H   LINE      CODE     ---       #132
      00FF8A4BH   LINE      CODE     ---       #133
      00FF8A4EH   LINE      CODE     ---       #134
      00FF8A50H   LINE      CODE     ---       #135
      ---         BLOCKEND  ---      ---       LVL=0
      WR14        REGSYM    ---      INT       spi_n
      R7          REGSYM    ---      BYTE      mode

      ---         MODULE    ---      ---       zf_tim
      00FF7D96H   PUBLIC    CODE     ---       pit_timer_ms
      00FF841CH   PUBLIC    CODE     ---       ctimer_count_init
      000000D0H   SFRSYM    DATA     BYTE      PSW
      0000009DH   SFRSYM    DATA     BYTE      IRCBAND
      00000097H   SFRSYM    DATA     BYTE      AUXR2
      000000EFH   SFRSYM    DATA     BYTE      AUXINTIF
      000000FDH   SFRSYM    DATA     BYTE      S4CON
      000000ACH   SFRSYM    DATA     BYTE      S3CON
      0000009AH   SFRSYM    DATA     BYTE      S2CON
      000000B7H   SFRSYM    DATA     BYTE      IPH
      000000CDH   SFRSYM    DATA     BYTE      SPSTAT
      000000DDH   SFRSYM    DATA     BYTE      T4T3M
      000000C1H   SFRSYM    DATA     BYTE      WDT_CONTR
      00000088H.6 SFRSYM    DATA     BIT       TR1
      00000088H.4 SFRSYM    DATA     BIT       TR0
      000000D3H   SFRSYM    DATA     BYTE      T4L
      000000D5H   SFRSYM    DATA     BYTE      T3L
      000000D7H   SFRSYM    DATA     BYTE      T2L
      0000008BH   SFRSYM    DATA     BYTE      TL1
      0000008AH   SFRSYM    DATA     BYTE      TL0
      000000D2H   SFRSYM    DATA     BYTE      T4H
      000000D4H   SFRSYM    DATA     BYTE      T3H
      000000D6H   SFRSYM    DATA     BYTE      T2H
      0000008DH   SFRSYM    DATA     BYTE      TH1
      0000008CH   SFRSYM    DATA     BYTE      TH0
      000000DFH   SFRSYM    DATA     BYTE      IP3
      000000F4H   SFRSYM    DATA     BYTE      USBCON
      000000B5H   SFRSYM    DATA     BYTE      IP2
      000000FFH   SFRSYM    DATA     BYTE      RSTCFG
      000000A8H.3 SFRSYM    DATA     BIT       ET1
      000000A8H.1 SFRSYM    DATA     BIT       ET0
      000000F9H   SFRSYM    DATA     BYTE      LINICR
      0000008EH   SFRSYM    DATA     BYTE      AUXR
      000000AFH   SFRSYM    DATA     BYTE      IE2
      00000088H   SFRSYM    DATA     BYTE      TCON
      00000089H   SFRSYM    DATA     BYTE      TMOD
      00000098H   SFRSYM    DATA     BYTE      SCON
      000000F1H   SFRSYM    DATA     BYTE      CANICR
      00000087H   SFRSYM    DATA     BYTE      PCON
      000000BCH   SFRSYM    DATA     BYTE      ADC_CONTR
      000000E7H   SFRSYM    DATA     BYTE      CMPCR2
      000000E6H   SFRSYM    DATA     BYTE      CMPCR1
      000000B8H   SFRSYM    DATA     BYTE      IP
      0000008FH   SFRSYM    DATA     BYTE      INTCLKO
      000000EEH   SFRSYM    DATA     BYTE      IP3H
      000000B6H   SFRSYM    DATA     BYTE      IP2H
      000000A8H   SFRSYM    DATA     BYTE      IE
      000000BBH   SFRSYM    DATA     BYTE      P_SW3
      000000BAH   SFRSYM    DATA     BYTE      P_SW2
      000000A2H   SFRSYM    DATA     BYTE      P_SW1
      000000CEH   SFRSYM    DATA     BYTE      SPCTL
      000000F8H   SFRSYM    DATA     BYTE      P7
      000000E8H   SFRSYM    DATA     BYTE      P6
      000000C8H   SFRSYM    DATA     BYTE      P5
      000000C0H   SFRSYM    DATA     BYTE      P4
      000000B0H   SFRSYM    DATA     BYTE      P3
L251 LINKER/LOCATER V4.66.93.0                                                        06/25/2023  18:36:41  PAGE 42


      000000A0H   SFRSYM    DATA     BYTE      P2
      00000090H   SFRSYM    DATA     BYTE      P1
      00000080H   SFRSYM    DATA     BYTE      P0

      00FF841CH   BLOCK     CODE     ---       LVL=0
      WR6         REGSYM    ---      INT       tim_n
      00FF841CH   LINE      CODE     ---       #39
      00FF841CH   LINE      CODE     ---       #42
      00FF8430H   LINE      CODE     ---       #44
      00FF8430H   LINE      CODE     ---       #46
      00FF8433H   LINE      CODE     ---       #47
      00FF8436H   LINE      CODE     ---       #48
      00FF8439H   LINE      CODE     ---       #49
      00FF843BH   LINE      CODE     ---       #50
      00FF843CH   LINE      CODE     ---       #53
      00FF843CH   LINE      CODE     ---       #55
      00FF843FH   LINE      CODE     ---       #56
      00FF8442H   LINE      CODE     ---       #57
      00FF8445H   LINE      CODE     ---       #58
      00FF8447H   LINE      CODE     ---       #59
      00FF8448H   LINE      CODE     ---       #62
      00FF8448H   LINE      CODE     ---       #64
      00FF844BH   LINE      CODE     ---       #65
      00FF844EH   LINE      CODE     ---       #66
      00FF8451H   LINE      CODE     ---       #67
      00FF8452H   LINE      CODE     ---       #70
      00FF8452H   LINE      CODE     ---       #72
      00FF8455H   LINE      CODE     ---       #73
      00FF8458H   LINE      CODE     ---       #74
      00FF845BH   LINE      CODE     ---       #75
      00FF845CH   LINE      CODE     ---       #78
      00FF845CH   LINE      CODE     ---       #80
      00FF845FH   LINE      CODE     ---       #81
      00FF8462H   LINE      CODE     ---       #82
      00FF8465H   LINE      CODE     ---       #83
      00FF8465H   LINE      CODE     ---       #86
      00FF8465H   LINE      CODE     ---       #87
      ---         BLOCKEND  ---      ---       LVL=0
      WR4         REGSYM    ---      INT       tim_n
      WR6         REGSYM    ---      WORD      dat
      WR6         REGSYM    ---      INT       tim_n

      00FF7D96H   BLOCK     CODE     ---       LVL=0
      WR30        REGSYM    ---      INT       tim_n
      WR28        REGSYM    ---      WORD      time_ms
      00FF7D98H   BLOCK     CODE     NEAR LAB  LVL=1
      WR28        REGSYM    ---      WORD      temp
      ---         BLOCKEND  ---      ---       LVL=1
      00FF7D96H   LINE      CODE     ---       #198
      00FF7D98H   LINE      CODE     ---       #199
      00FF7D98H   LINE      CODE     ---       #201
      00FF7DB5H   LINE      CODE     ---       #203
      00FF7DB9H   LINE      CODE     ---       #205
      00FF7DBDH   LINE      CODE     ---       #206
      00FF7DC3H   LINE      CODE     ---       #207
      00FF7DC7H   LINE      CODE     ---       #208
      00FF7DC9H   LINE      CODE     ---       #209
      00FF7DCBH   LINE      CODE     ---       #210
      00FF7DCCH   LINE      CODE     ---       #211
      00FF7DD2H   LINE      CODE     ---       #213
      00FF7DD6H   LINE      CODE     ---       #214
      00FF7DDCH   LINE      CODE     ---       #215
      00FF7DE0H   LINE      CODE     ---       #216
      00FF7DE2H   LINE      CODE     ---       #217
      00FF7DE4H   LINE      CODE     ---       #218
L251 LINKER/LOCATER V4.66.93.0                                                        06/25/2023  18:36:41  PAGE 43


      00FF7DE5H   LINE      CODE     ---       #219
      00FF7DEBH   LINE      CODE     ---       #221
      00FF7DF1H   LINE      CODE     ---       #222
      00FF7DF5H   LINE      CODE     ---       #223
      00FF7DF8H   LINE      CODE     ---       #224
      00FF7DFBH   LINE      CODE     ---       #225
      00FF7DFCH   LINE      CODE     ---       #226
      00FF7E02H   LINE      CODE     ---       #228
      00FF7E08H   LINE      CODE     ---       #229
      00FF7E0CH   LINE      CODE     ---       #230
      00FF7E0FH   LINE      CODE     ---       #231
      00FF7E12H   LINE      CODE     ---       #232
      00FF7E13H   LINE      CODE     ---       #233
      00FF7E19H   LINE      CODE     ---       #235
      00FF7E1FH   LINE      CODE     ---       #236
      00FF7E23H   LINE      CODE     ---       #237
      00FF7E26H   LINE      CODE     ---       #238
      00FF7E29H   LINE      CODE     ---       #239
      ---         BLOCKEND  ---      ---       LVL=0

      ---         MODULE    ---      ---       zf_uart
      00FF8287H   PUBLIC    CODE     ---       uart_putchar
      00FF7430H   PUBLIC    CODE     ---       uart_init
      000005A2H   PUBLIC    EDATA    ---       uart1_rx_buff
      00000606H   PUBLIC    EDATA    ---       uart1_tx_buff
      0000066AH   PUBLIC    EDATA    ---       busy
      0000067EH   PUBLIC    EDATA    BYTE      ?uart_init?BYTE
      000000D0H   SFRSYM    DATA     BYTE      PSW
      0000009DH   SFRSYM    DATA     BYTE      IRCBAND
      00000097H   SFRSYM    DATA     BYTE      AUXR2
      000000EFH   SFRSYM    DATA     BYTE      AUXINTIF
      000000FDH   SFRSYM    DATA     BYTE      S4CON
      000000ACH   SFRSYM    DATA     BYTE      S3CON
      0000009AH   SFRSYM    DATA     BYTE      S2CON
      000000FEH   SFRSYM    DATA     BYTE      S4BUF
      000000ADH   SFRSYM    DATA     BYTE      S3BUF
      0000009BH   SFRSYM    DATA     BYTE      S2BUF
      000000B7H   SFRSYM    DATA     BYTE      IPH
      000000CDH   SFRSYM    DATA     BYTE      SPSTAT
      000000DDH   SFRSYM    DATA     BYTE      T4T3M
      000000C1H   SFRSYM    DATA     BYTE      WDT_CONTR
      00000088H.6 SFRSYM    DATA     BIT       TR1
      000000D3H   SFRSYM    DATA     BYTE      T4L
      000000D5H   SFRSYM    DATA     BYTE      T3L
      000000D7H   SFRSYM    DATA     BYTE      T2L
      0000008BH   SFRSYM    DATA     BYTE      TL1
      000000D2H   SFRSYM    DATA     BYTE      T4H
      000000D4H   SFRSYM    DATA     BYTE      T3H
      000000D6H   SFRSYM    DATA     BYTE      T2H
      0000008DH   SFRSYM    DATA     BYTE      TH1
      000000DFH   SFRSYM    DATA     BYTE      IP3
      000000F4H   SFRSYM    DATA     BYTE      USBCON
      000000B5H   SFRSYM    DATA     BYTE      IP2
      000000FFH   SFRSYM    DATA     BYTE      RSTCFG
      000000F9H   SFRSYM    DATA     BYTE      LINICR
      0000008EH   SFRSYM    DATA     BYTE      AUXR
      000000AFH   SFRSYM    DATA     BYTE      IE2
      00000088H   SFRSYM    DATA     BYTE      TCON
      00000089H   SFRSYM    DATA     BYTE      TMOD
      00000098H   SFRSYM    DATA     BYTE      SCON
      000000F1H   SFRSYM    DATA     BYTE      CANICR
      00000087H   SFRSYM    DATA     BYTE      PCON
      00000099H   SFRSYM    DATA     BYTE      SBUF
      000000BCH   SFRSYM    DATA     BYTE      ADC_CONTR
      000000E7H   SFRSYM    DATA     BYTE      CMPCR2
L251 LINKER/LOCATER V4.66.93.0                                                        06/25/2023  18:36:41  PAGE 44


      000000E6H   SFRSYM    DATA     BYTE      CMPCR1
      000000B8H   SFRSYM    DATA     BYTE      IP
      000000A8H.4 SFRSYM    DATA     BIT       ES
      0000008FH   SFRSYM    DATA     BYTE      INTCLKO
      000000EEH   SFRSYM    DATA     BYTE      IP3H
      000000B6H   SFRSYM    DATA     BYTE      IP2H
      000000A8H   SFRSYM    DATA     BYTE      IE
      000000BBH   SFRSYM    DATA     BYTE      P_SW3
      000000BAH   SFRSYM    DATA     BYTE      P_SW2
      000000A2H   SFRSYM    DATA     BYTE      P_SW1
      000000CEH   SFRSYM    DATA     BYTE      SPCTL
      000000F8H   SFRSYM    DATA     BYTE      P7
      000000E8H   SFRSYM    DATA     BYTE      P6
      000000C8H   SFRSYM    DATA     BYTE      P5
      000000C0H   SFRSYM    DATA     BYTE      P4
      000000C9H   SFRSYM    DATA     BYTE      P5M1
      000000B0H   SFRSYM    DATA     BYTE      P3
      000000CAH   SFRSYM    DATA     BYTE      P5M0
      000000A0H   SFRSYM    DATA     BYTE      P2
      00000090H   SFRSYM    DATA     BYTE      P1
      00000080H   SFRSYM    DATA     BYTE      P0

      00FF7430H   BLOCK     CODE     ---       LVL=0
      WR24        REGSYM    ---      INT       uart_n
      WR28        REGSYM    ---      INT       uart_rx_pin
      WR30        REGSYM    ---      INT       uart_tx_pin
      00000684H   SYMBOL    EDATA    DWORD     baud
      WR26        REGSYM    ---      INT       tim_n
      00FF7438H   BLOCK     CODE     NEAR LAB  LVL=1
      WR6         REGSYM    ---      WORD      brt
      ---         BLOCKEND  ---      ---       LVL=1
      00FF7430H   LINE      CODE     ---       #48
      00FF7438H   LINE      CODE     ---       #49
      00FF7438H   LINE      CODE     ---       #52
      00FF745BH   LINE      CODE     ---       #55
      00FF7479H   LINE      CODE     ---       #57
      00FF7479H   LINE      CODE     ---       #59
      00FF747FH   LINE      CODE     ---       #61
      00FF7482H   LINE      CODE     ---       #62
      00FF7486H   LINE      CODE     ---       #63
      00FF748AH   LINE      CODE     ---       #64
      00FF748EH   LINE      CODE     ---       #65
      00FF7491H   LINE      CODE     ---       #66
      00FF7493H   LINE      CODE     ---       #67
      00FF7498H   LINE      CODE     ---       #68
      00FF749AH   LINE      CODE     ---       #69
      00FF74A0H   LINE      CODE     ---       #71
      00FF74A3H   LINE      CODE     ---       #72
      00FF74A7H   LINE      CODE     ---       #73
      00FF74ABH   LINE      CODE     ---       #74
      00FF74AEH   LINE      CODE     ---       #75
      00FF74AEH   LINE      CODE     ---       #76
      00FF74B1H   LINE      CODE     ---       #77
      00FF74BBH   LINE      CODE     ---       #79
      00FF74BFH   LINE      CODE     ---       #80
      00FF74C1H   LINE      CODE     ---       #81
      00FF74CDH   LINE      CODE     ---       #83
      00FF74D0H   LINE      CODE     ---       #84
      00FF74D2H   LINE      CODE     ---       #85
      00FF74DEH   LINE      CODE     ---       #87
      00FF74E1H   LINE      CODE     ---       #88
      00FF74E3H   LINE      CODE     ---       #89
      00FF74EFH   LINE      CODE     ---       #91
      00FF74F2H   LINE      CODE     ---       #92
      00FF74F2H   LINE      CODE     ---       #93
L251 LINKER/LOCATER V4.66.93.0                                                        06/25/2023  18:36:41  PAGE 45


      00FF74F7H   LINE      CODE     ---       #94
      00FF74F9H   LINE      CODE     ---       #95
      00FF74FAH   LINE      CODE     ---       #98
      00FF74FAH   LINE      CODE     ---       #100
      00FF7500H   LINE      CODE     ---       #102
      00FF7503H   LINE      CODE     ---       #103
      00FF7507H   LINE      CODE     ---       #104
      00FF750BH   LINE      CODE     ---       #105
      00FF750EH   LINE      CODE     ---       #106
      00FF750EH   LINE      CODE     ---       #108
      00FF7511H   LINE      CODE     ---       #109
      00FF751DH   LINE      CODE     ---       #111
      00FF7521H   LINE      CODE     ---       #112
      00FF7523H   LINE      CODE     ---       #113
      00FF752FH   LINE      CODE     ---       #115
      00FF7532H   LINE      CODE     ---       #116
      00FF7532H   LINE      CODE     ---       #118
      00FF7535H   LINE      CODE     ---       #119
      00FF753AH   LINE      CODE     ---       #120
      00FF753BH   LINE      CODE     ---       #123
      00FF753BH   LINE      CODE     ---       #125
      00FF7541H   LINE      CODE     ---       #127
      00FF7544H   LINE      CODE     ---       #128
      00FF7548H   LINE      CODE     ---       #129
      00FF754CH   LINE      CODE     ---       #130
      00FF754FH   LINE      CODE     ---       #131
      00FF7551H   LINE      CODE     ---       #132
      00FF7557H   LINE      CODE     ---       #134
      00FF755AH   LINE      CODE     ---       #135
      00FF755EH   LINE      CODE     ---       #136
      00FF7562H   LINE      CODE     ---       #137
      00FF7565H   LINE      CODE     ---       #138
      00FF7565H   LINE      CODE     ---       #140
      00FF7568H   LINE      CODE     ---       #141
      00FF7574H   LINE      CODE     ---       #143
      00FF7578H   LINE      CODE     ---       #144
      00FF757AH   LINE      CODE     ---       #145
      00FF7586H   LINE      CODE     ---       #147
      00FF7589H   LINE      CODE     ---       #148
      00FF7589H   LINE      CODE     ---       #150
      00FF758CH   LINE      CODE     ---       #151
      00FF7591H   LINE      CODE     ---       #152
      00FF7592H   LINE      CODE     ---       #155
      00FF7592H   LINE      CODE     ---       #157
      00FF7598H   LINE      CODE     ---       #159
      00FF759BH   LINE      CODE     ---       #160
      00FF759FH   LINE      CODE     ---       #161
      00FF75A3H   LINE      CODE     ---       #162
      00FF75A6H   LINE      CODE     ---       #163
      00FF75A8H   LINE      CODE     ---       #164
      00FF75AEH   LINE      CODE     ---       #166
      00FF75B1H   LINE      CODE     ---       #167
      00FF75B5H   LINE      CODE     ---       #168
      00FF75B9H   LINE      CODE     ---       #169
      00FF75BCH   LINE      CODE     ---       #170
      00FF75BCH   LINE      CODE     ---       #172
      00FF75BFH   LINE      CODE     ---       #173
      00FF75CBH   LINE      CODE     ---       #175
      00FF75CFH   LINE      CODE     ---       #176
      00FF75D1H   LINE      CODE     ---       #177
      00FF75DDH   LINE      CODE     ---       #179
      00FF75E0H   LINE      CODE     ---       #180
      00FF75E3H   LINE      CODE     ---       #181
      00FF75E6H   LINE      CODE     ---       #182
      00FF75E6H   LINE      CODE     ---       #183
L251 LINKER/LOCATER V4.66.93.0                                                        06/25/2023  18:36:41  PAGE 46


      00FF75E9H   LINE      CODE     ---       #184
      00FF75EEH   LINE      CODE     ---       #185
      00FF75EEH   LINE      CODE     ---       #188
      00FF75EEH   LINE      CODE     ---       #189
      ---         BLOCKEND  ---      ---       LVL=0

      00FF8287H   BLOCK     CODE     ---       LVL=0
      WR6         REGSYM    ---      INT       uart_n
      R10         REGSYM    ---      BYTE      dat
      00FF8287H   LINE      CODE     ---       #198
      00FF8289H   LINE      CODE     ---       #200
      00FF829BH   LINE      CODE     ---       #202
      00FF829BH   LINE      CODE     ---       #203
      00FF82A1H   LINE      CODE     ---       #204
      00FF82A7H   LINE      CODE     ---       #205
      00FF82AAH   LINE      CODE     ---       #206
      00FF82ABH   LINE      CODE     ---       #207
      00FF82ABH   LINE      CODE     ---       #208
      00FF82B1H   LINE      CODE     ---       #209
      00FF82B7H   LINE      CODE     ---       #210
      00FF82BAH   LINE      CODE     ---       #211
      00FF82BBH   LINE      CODE     ---       #212
      00FF82BBH   LINE      CODE     ---       #213
      00FF82C1H   LINE      CODE     ---       #214
      00FF82C7H   LINE      CODE     ---       #215
      00FF82CAH   LINE      CODE     ---       #216
      00FF82CBH   LINE      CODE     ---       #217
      00FF82CBH   LINE      CODE     ---       #218
      00FF82D1H   LINE      CODE     ---       #219
      00FF82D7H   LINE      CODE     ---       #220
      00FF82DAH   LINE      CODE     ---       #221
      00FF82DAH   LINE      CODE     ---       #222
      00FF82DAH   LINE      CODE     ---       #223
      ---         BLOCKEND  ---      ---       LVL=0
      REG=3       REGSYM    ---      ---       p
      REG=3       REGSYM    ---      ---       str

      ---         MODULE    ---      ---       zf_fifo
      00FF8466H   PUBLIC    CODE     ---       fifo_head_offset
      00FF7B43H   PUBLIC    CODE     ---       fifo_write_buffer
      0000066BH   PUBLIC    EDATA    BYTE      ?fifo_write_buffer?BYTE
      000000D0H   SFRSYM    DATA     BYTE      PSW
      0000009DH   SFRSYM    DATA     BYTE      IRCBAND
      00000097H   SFRSYM    DATA     BYTE      AUXR2
      000000EFH   SFRSYM    DATA     BYTE      AUXINTIF
      000000FDH   SFRSYM    DATA     BYTE      S4CON
      000000ACH   SFRSYM    DATA     BYTE      S3CON
      0000009AH   SFRSYM    DATA     BYTE      S2CON
      000000B7H   SFRSYM    DATA     BYTE      IPH
      000000CDH   SFRSYM    DATA     BYTE      SPSTAT
      000000DDH   SFRSYM    DATA     BYTE      T4T3M
      000000C1H   SFRSYM    DATA     BYTE      WDT_CONTR
      000000DFH   SFRSYM    DATA     BYTE      IP3
      000000F4H   SFRSYM    DATA     BYTE      USBCON
      000000B5H   SFRSYM    DATA     BYTE      IP2
      000000FFH   SFRSYM    DATA     BYTE      RSTCFG
      000000F9H   SFRSYM    DATA     BYTE      LINICR
      0000008EH   SFRSYM    DATA     BYTE      AUXR
      000000AFH   SFRSYM    DATA     BYTE      IE2
      00000088H   SFRSYM    DATA     BYTE      TCON
      00000098H   SFRSYM    DATA     BYTE      SCON
      000000F1H   SFRSYM    DATA     BYTE      CANICR
      00000087H   SFRSYM    DATA     BYTE      PCON
      000000BCH   SFRSYM    DATA     BYTE      ADC_CONTR
      000000E7H   SFRSYM    DATA     BYTE      CMPCR2
L251 LINKER/LOCATER V4.66.93.0                                                        06/25/2023  18:36:41  PAGE 47


      000000E6H   SFRSYM    DATA     BYTE      CMPCR1
      000000B8H   SFRSYM    DATA     BYTE      IP
      0000008FH   SFRSYM    DATA     BYTE      INTCLKO
      000000EEH   SFRSYM    DATA     BYTE      IP3H
      000000B6H   SFRSYM    DATA     BYTE      IP2H
      000000A8H   SFRSYM    DATA     BYTE      IE
      000000BBH   SFRSYM    DATA     BYTE      P_SW3
      000000BAH   SFRSYM    DATA     BYTE      P_SW2
      000000A2H   SFRSYM    DATA     BYTE      P_SW1
      000000CEH   SFRSYM    DATA     BYTE      SPCTL
      000000F8H   SFRSYM    DATA     BYTE      P7
      000000E8H   SFRSYM    DATA     BYTE      P6
      000000C8H   SFRSYM    DATA     BYTE      P5
      000000C0H   SFRSYM    DATA     BYTE      P4
      000000B0H   SFRSYM    DATA     BYTE      P3
      000000A0H   SFRSYM    DATA     BYTE      P2
      00000090H   SFRSYM    DATA     BYTE      P1
      00000080H   SFRSYM    DATA     BYTE      P0
      REG=2       REGSYM    ---      ---       fifo
      REG=7       REGSYM    ---      ---       buffer_addr

      00FF8466H   BLOCK     CODE     ---       LVL=0
      REG=7       REGSYM    ---      ---       fifo
      DR24        REGSYM    ---      DWORD     offset
      00FF8466H   LINE      CODE     ---       #61
      00FF846AH   LINE      CODE     ---       #63
      00FF8475H   LINE      CODE     ---       #65
      00FF8477H   LINE      CODE     ---       #67
      00FF8493H   LINE      CODE     ---       #68
      00FF84A7H   LINE      CODE     ---       #69
      ---         BLOCKEND  ---      ---       LVL=0
      REG=7       REGSYM    ---      ---       fifo
      DR24        REGSYM    ---      DWORD     offset
      REG=2       REGSYM    ---      ---       fifo
      REG=7       REGSYM    ---      ---       fifo

      00FF7B43H   BLOCK     CODE     ---       LVL=0
      REG=3       REGSYM    ---      ---       fifo
      0000066FH   SYMBOL    EDATA    ---       dat
      00000673H   SYMBOL    EDATA    DWORD     length
      00FF7B4BH   BLOCK     CODE     NEAR LAB  LVL=1
      00000677H   SYMBOL    EDATA    DWORD     temp_length
      ---         BLOCKEND  ---      ---       LVL=1
      00FF7B43H   LINE      CODE     ---       #120
      00FF7B4BH   LINE      CODE     ---       #121
      00FF7B4BH   LINE      CODE     ---       #124
      00FF7B5EH   LINE      CODE     ---       #126
      00FF7B74H   LINE      CODE     ---       #128
      00FF7B78H   LINE      CODE     ---       #130
      00FF7B90H   LINE      CODE     ---       #131
      00FF7B99H   LINE      CODE     ---       #132
      00FF7BA9H   LINE      CODE     ---       #133
      00FF7BC9H   LINE      CODE     ---       #134
      00FF7BD5H   LINE      CODE     ---       #135
      00FF7BD7H   LINE      CODE     ---       #138
      00FF7BF3H   LINE      CODE     ---       #139
      00FF7BFCH   LINE      CODE     ---       #140
      00FF7BFCH   LINE      CODE     ---       #142
      00FF7C16H   LINE      CODE     ---       #143
      00FF7C18H   LINE      CODE     ---       #146
      00FF7C1EH   LINE      CODE     ---       #147
      00FF7C1EH   LINE      CODE     ---       #149
      00FF7C20H   LINE      CODE     ---       #150
      ---         BLOCKEND  ---      ---       LVL=0
      REG=3       REGSYM    ---      ---       fifo
L251 LINKER/LOCATER V4.66.93.0                                                        06/25/2023  18:36:41  PAGE 48



      ---         MODULE    ---      ---       zf__DMA
      00FF83D0H   PUBLIC    CODE     ---       NVIC_DMA_ADC_Init
      00FF8567H   PUBLIC    CODE     ---       DMA_config
      00FF8111H   PUBLIC    CODE     ---       DMA_ADC_Inilize
      00010000H   PUBLIC    XDATA    ---       DmaAdBuffer
      00000020H.0 PUBLIC    BIT      BIT       DmaADCFlag
      000000D0H   SFRSYM    DATA     BYTE      PSW
      0000009DH   SFRSYM    DATA     BYTE      IRCBAND
      00000097H   SFRSYM    DATA     BYTE      AUXR2
      000000EFH   SFRSYM    DATA     BYTE      AUXINTIF
      000000FDH   SFRSYM    DATA     BYTE      S4CON
      000000ACH   SFRSYM    DATA     BYTE      S3CON
      0000009AH   SFRSYM    DATA     BYTE      S2CON
      000000B7H   SFRSYM    DATA     BYTE      IPH
      000000CDH   SFRSYM    DATA     BYTE      SPSTAT
      000000DDH   SFRSYM    DATA     BYTE      T4T3M
      000000C1H   SFRSYM    DATA     BYTE      WDT_CONTR
      000000DFH   SFRSYM    DATA     BYTE      IP3
      000000F4H   SFRSYM    DATA     BYTE      USBCON
      000000B5H   SFRSYM    DATA     BYTE      IP2
      000000FFH   SFRSYM    DATA     BYTE      RSTCFG
      000000F9H   SFRSYM    DATA     BYTE      LINICR
      0000008EH   SFRSYM    DATA     BYTE      AUXR
      000000AFH   SFRSYM    DATA     BYTE      IE2
      00000088H   SFRSYM    DATA     BYTE      TCON
      00000098H   SFRSYM    DATA     BYTE      SCON
      000000F1H   SFRSYM    DATA     BYTE      CANICR
      00000087H   SFRSYM    DATA     BYTE      PCON
      000000BCH   SFRSYM    DATA     BYTE      ADC_CONTR
      000000E7H   SFRSYM    DATA     BYTE      CMPCR2
      000000E6H   SFRSYM    DATA     BYTE      CMPCR1
      000000B8H   SFRSYM    DATA     BYTE      IP
      0000008FH   SFRSYM    DATA     BYTE      INTCLKO
      000000EEH   SFRSYM    DATA     BYTE      IP3H
      000000B6H   SFRSYM    DATA     BYTE      IP2H
      000000A8H   SFRSYM    DATA     BYTE      IE
      000000BBH   SFRSYM    DATA     BYTE      P_SW3
      000000BAH   SFRSYM    DATA     BYTE      P_SW2
      000000A2H   SFRSYM    DATA     BYTE      P_SW1
      000000CEH   SFRSYM    DATA     BYTE      SPCTL
      000000F8H   SFRSYM    DATA     BYTE      P7
      000000E8H   SFRSYM    DATA     BYTE      P6
      000000C8H   SFRSYM    DATA     BYTE      P5
      000000C0H   SFRSYM    DATA     BYTE      P4
      000000B0H   SFRSYM    DATA     BYTE      P3
      000000A0H   SFRSYM    DATA     BYTE      P2
      00000090H   SFRSYM    DATA     BYTE      P1
      00000080H   SFRSYM    DATA     BYTE      P0

      00FF8111H   BLOCK     CODE     ---       LVL=0
      REG=7       REGSYM    ---      ---       DMA
      00FF8111H   LINE      CODE     ---       #11
      00FF8113H   LINE      CODE     ---       #13
      00FF811FH   LINE      CODE     ---       #14
      00FF812AH   LINE      CODE     ---       #15
      00FF8131H   LINE      CODE     ---       #16
      00FF813CH   LINE      CODE     ---       #17
      00FF8143H   LINE      CODE     ---       #18
      00FF814EH   LINE      CODE     ---       #19
      00FF8154H   LINE      CODE     ---       #20
      00FF8163H   LINE      CODE     ---       #22
      00FF8173H   LINE      CODE     ---       #23
      ---         BLOCKEND  ---      ---       LVL=0

L251 LINKER/LOCATER V4.66.93.0                                                        06/25/2023  18:36:41  PAGE 49


      00FF8567H   BLOCK     CODE     ---       LVL=0
      00000684H   SYMBOL    EDATA    ---       DMA_ADC_InitStructure
      00FF8567H   LINE      CODE     ---       #25
      00FF8567H   LINE      CODE     ---       #26
      00FF8567H   LINE      CODE     ---       #29
      00FF856DH   LINE      CODE     ---       #30
      00FF8575H   LINE      CODE     ---       #31
      00FF857DH   LINE      CODE     ---       #32
      00FF8583H   LINE      CODE     ---       #33
      00FF858AH   LINE      CODE     ---       #34
      00FF8593H   LINE      CODE     ---       #35
      00FF85A3H   LINE      CODE     ---       #36
      ---         BLOCKEND  ---      ---       LVL=0

      00FF83D0H   BLOCK     CODE     ---       LVL=0
      R9          REGSYM    ---      BYTE      State
      R3          REGSYM    ---      BYTE      Priority
      R10         REGSYM    ---      BYTE      Bus_Priority
      00FF83D0H   LINE      CODE     ---       #46
      00FF83D6H   LINE      CODE     ---       #48
      00FF83E6H   LINE      CODE     ---       #49
      00FF83F9H   LINE      CODE     ---       #50
      00FF8406H   LINE      CODE     ---       #51
      00FF840BH   LINE      CODE     ---       #52
      00FF8412H   LINE      CODE     ---       #54
      00FF841AH   LINE      CODE     ---       #55
      00FF841BH   LINE      CODE     ---       #56
      ---         BLOCKEND  ---      ---       LVL=0

      ---         MODULE    ---      ---       SEEKFREE_ABSOLUTE_ENCODER
      000000D0H   SFRSYM    DATA     BYTE      PSW
      0000009DH   SFRSYM    DATA     BYTE      IRCBAND
      00000097H   SFRSYM    DATA     BYTE      AUXR2
      000000EFH   SFRSYM    DATA     BYTE      AUXINTIF
      000000FDH   SFRSYM    DATA     BYTE      S4CON
      000000ACH   SFRSYM    DATA     BYTE      S3CON
      0000009AH   SFRSYM    DATA     BYTE      S2CON
      000000B7H   SFRSYM    DATA     BYTE      IPH
      000000CDH   SFRSYM    DATA     BYTE      SPSTAT
      000000DDH   SFRSYM    DATA     BYTE      T4T3M
      000000C1H   SFRSYM    DATA     BYTE      WDT_CONTR
      000000DFH   SFRSYM    DATA     BYTE      IP3
      000000F4H   SFRSYM    DATA     BYTE      USBCON
      000000B5H   SFRSYM    DATA     BYTE      IP2
      000000FFH   SFRSYM    DATA     BYTE      RSTCFG
      000000F9H   SFRSYM    DATA     BYTE      LINICR
      0000008EH   SFRSYM    DATA     BYTE      AUXR
      000000AFH   SFRSYM    DATA     BYTE      IE2
      000000A0H.7 SFRSYM    DATA     BIT       P27
      000000A0H.6 SFRSYM    DATA     BIT       P26
      000000A0H.5 SFRSYM    DATA     BIT       P25
      000000A0H.4 SFRSYM    DATA     BIT       P24
      00000088H   SFRSYM    DATA     BYTE      TCON
      00000098H   SFRSYM    DATA     BYTE      SCON
      000000A0H.2 SFRSYM    DATA     BIT       P22
      000000F1H   SFRSYM    DATA     BYTE      CANICR
      00000087H   SFRSYM    DATA     BYTE      PCON
      000000BCH   SFRSYM    DATA     BYTE      ADC_CONTR
      000000E7H   SFRSYM    DATA     BYTE      CMPCR2
      000000E6H   SFRSYM    DATA     BYTE      CMPCR1
      000000B8H   SFRSYM    DATA     BYTE      IP
      0000008FH   SFRSYM    DATA     BYTE      INTCLKO
      000000EEH   SFRSYM    DATA     BYTE      IP3H
      000000B6H   SFRSYM    DATA     BYTE      IP2H
      000000A8H   SFRSYM    DATA     BYTE      IE
L251 LINKER/LOCATER V4.66.93.0                                                        06/25/2023  18:36:41  PAGE 50


      000000BBH   SFRSYM    DATA     BYTE      P_SW3
      000000BAH   SFRSYM    DATA     BYTE      P_SW2
      000000A2H   SFRSYM    DATA     BYTE      P_SW1
      000000CEH   SFRSYM    DATA     BYTE      SPCTL
      000000F8H   SFRSYM    DATA     BYTE      P7
      000000E8H   SFRSYM    DATA     BYTE      P6
      000000C8H   SFRSYM    DATA     BYTE      P5
      000000C0H   SFRSYM    DATA     BYTE      P4
      000000B0H   SFRSYM    DATA     BYTE      P3
      000000A0H   SFRSYM    DATA     BYTE      P2
      00000090H   SFRSYM    DATA     BYTE      P1
      00000080H   SFRSYM    DATA     BYTE      P0
      WR6         REGSYM    ---      WORD      x
      R6          REGSYM    ---      BYTE      byte
      R7          REGSYM    ---      BYTE      i
      R7          REGSYM    ---      BYTE      cmd
      R15         REGSYM    ---      BYTE      val
      R7          REGSYM    ---      BYTE      cmd
      REG=3       REGSYM    ---      ---       val
      R7          REGSYM    ---      BYTE      cmd
      R15         REGSYM    ---      BYTE      val
      R14         REGSYM    ---      BYTE      dat
      R7          REGSYM    ---      BYTE      cmd
      REG=3       REGSYM    ---      ---       val
      WR14        REGSYM    ---      WORD      zero_position
      WR14        REGSYM    ---      WORD      angle
      R10         REGSYM    ---      BYTE      byte
      R7          REGSYM    ---      BYTE      cmd
      R15         REGSYM    ---      BYTE      val
      R7          REGSYM    ---      BYTE      cmd
      REG=3       REGSYM    ---      ---       val
      R7          REGSYM    ---      BYTE      cmd
      R15         REGSYM    ---      BYTE      val
      R14         REGSYM    ---      BYTE      dat
      R7          REGSYM    ---      BYTE      cmd
      REG=3       REGSYM    ---      ---       val
      WR14        REGSYM    ---      WORD      zero_position
      WR14        REGSYM    ---      WORD      angle

      ---         MODULE    ---      ---       SEEKFREE_AT24C02
      000000D0H   SFRSYM    DATA     BYTE      PSW
      0000009DH   SFRSYM    DATA     BYTE      IRCBAND
      00000097H   SFRSYM    DATA     BYTE      AUXR2
      000000EFH   SFRSYM    DATA     BYTE      AUXINTIF
      000000FDH   SFRSYM    DATA     BYTE      S4CON
      000000ACH   SFRSYM    DATA     BYTE      S3CON
      0000009AH   SFRSYM    DATA     BYTE      S2CON
      000000B7H   SFRSYM    DATA     BYTE      IPH
      000000CDH   SFRSYM    DATA     BYTE      SPSTAT
      000000DDH   SFRSYM    DATA     BYTE      T4T3M
      000000C1H   SFRSYM    DATA     BYTE      WDT_CONTR
      000000DFH   SFRSYM    DATA     BYTE      IP3
      000000F4H   SFRSYM    DATA     BYTE      USBCON
      000000B5H   SFRSYM    DATA     BYTE      IP2
      000000FFH   SFRSYM    DATA     BYTE      RSTCFG
      000000F9H   SFRSYM    DATA     BYTE      LINICR
      0000008EH   SFRSYM    DATA     BYTE      AUXR
      000000AFH   SFRSYM    DATA     BYTE      IE2
      00000088H   SFRSYM    DATA     BYTE      TCON
      000000A0H.3 SFRSYM    DATA     BIT       P23
      00000098H   SFRSYM    DATA     BYTE      SCON
      000000A0H.2 SFRSYM    DATA     BIT       P22
      000000F1H   SFRSYM    DATA     BYTE      CANICR
      00000087H   SFRSYM    DATA     BYTE      PCON
      000000BCH   SFRSYM    DATA     BYTE      ADC_CONTR
L251 LINKER/LOCATER V4.66.93.0                                                        06/25/2023  18:36:41  PAGE 51


      000000E7H   SFRSYM    DATA     BYTE      CMPCR2
      000000E6H   SFRSYM    DATA     BYTE      CMPCR1
      000000B8H   SFRSYM    DATA     BYTE      IP
      0000008FH   SFRSYM    DATA     BYTE      INTCLKO
      000000EEH   SFRSYM    DATA     BYTE      IP3H
      000000B6H   SFRSYM    DATA     BYTE      IP2H
      000000A8H   SFRSYM    DATA     BYTE      IE
      000000BBH   SFRSYM    DATA     BYTE      P_SW3
      000000BAH   SFRSYM    DATA     BYTE      P_SW2
      000000A2H   SFRSYM    DATA     BYTE      P_SW1
      000000CEH   SFRSYM    DATA     BYTE      SPCTL
      000000F8H   SFRSYM    DATA     BYTE      P7
      000000E8H   SFRSYM    DATA     BYTE      P6
      000000C8H   SFRSYM    DATA     BYTE      P5
      000000C0H   SFRSYM    DATA     BYTE      P4
      000000B0H   SFRSYM    DATA     BYTE      P3
      000000A0H   SFRSYM    DATA     BYTE      P2
      00000090H   SFRSYM    DATA     BYTE      P1
      00000080H   SFRSYM    DATA     BYTE      P0
      WR6         REGSYM    ---      WORD      j
      R15         REGSYM    ---      BYTE      ack_dat
      R15         REGSYM    ---      BYTE      c
      R14         REGSYM    ---      BYTE      i
      R15         REGSYM    ---      BYTE      ack_x
      R13         REGSYM    ---      BYTE      i
      R14         REGSYM    ---      BYTE      c
      R13         REGSYM    ---      BYTE      dev_add
      R14         REGSYM    ---      BYTE      reg
      R15         REGSYM    ---      BYTE      dat
      R15         REGSYM    ---      BYTE      dev_add
      R14         REGSYM    ---      BYTE      reg
      R15         REGSYM    ---      BYTE      dat
      R14         REGSYM    ---      BYTE      byte_reg
      R15         REGSYM    ---      BYTE      dat
      R15         REGSYM    ---      BYTE      byte_reg
      REG=3       REGSYM    ---      ---       dat_add
      REG=3       REGSYM    ---      ---       dat_add

      ---         MODULE    ---      ---       SEEKFREE_BLUETOOTH_CH9141
      00FF896AH   PUBLIC    CODE     ---       bluetooth_ch9141_uart_callback
      000000D0H   SFRSYM    DATA     BYTE      PSW
      0000009DH   SFRSYM    DATA     BYTE      IRCBAND
      00000097H   SFRSYM    DATA     BYTE      AUXR2
      000000EFH   SFRSYM    DATA     BYTE      AUXINTIF
      000000FDH   SFRSYM    DATA     BYTE      S4CON
      000000ACH   SFRSYM    DATA     BYTE      S3CON
      0000009AH   SFRSYM    DATA     BYTE      S2CON
      000000FEH   SFRSYM    DATA     BYTE      S4BUF
      000000B7H   SFRSYM    DATA     BYTE      IPH
      000000CDH   SFRSYM    DATA     BYTE      SPSTAT
      000000DDH   SFRSYM    DATA     BYTE      T4T3M
      000000C1H   SFRSYM    DATA     BYTE      WDT_CONTR
      000000DFH   SFRSYM    DATA     BYTE      IP3
      000000F4H   SFRSYM    DATA     BYTE      USBCON
      000000B5H   SFRSYM    DATA     BYTE      IP2
      000000FFH   SFRSYM    DATA     BYTE      RSTCFG
      000000F9H   SFRSYM    DATA     BYTE      LINICR
      0000008EH   SFRSYM    DATA     BYTE      AUXR
      000000AFH   SFRSYM    DATA     BYTE      IE2
      00000080H.7 SFRSYM    DATA     BIT       P07
      00000088H   SFRSYM    DATA     BYTE      TCON
      00000098H   SFRSYM    DATA     BYTE      SCON
      000000F1H   SFRSYM    DATA     BYTE      CANICR
      00000087H   SFRSYM    DATA     BYTE      PCON
      000000BCH   SFRSYM    DATA     BYTE      ADC_CONTR
L251 LINKER/LOCATER V4.66.93.0                                                        06/25/2023  18:36:41  PAGE 52


      000000E7H   SFRSYM    DATA     BYTE      CMPCR2
      000000E6H   SFRSYM    DATA     BYTE      CMPCR1
      000000B8H   SFRSYM    DATA     BYTE      IP
      0000008FH   SFRSYM    DATA     BYTE      INTCLKO
      000000EEH   SFRSYM    DATA     BYTE      IP3H
      000000B6H   SFRSYM    DATA     BYTE      IP2H
      000000A8H   SFRSYM    DATA     BYTE      IE
      000000BBH   SFRSYM    DATA     BYTE      P_SW3
      000000BAH   SFRSYM    DATA     BYTE      P_SW2
      000000A2H   SFRSYM    DATA     BYTE      P_SW1
      000000CEH   SFRSYM    DATA     BYTE      SPCTL
      000000F8H   SFRSYM    DATA     BYTE      P7
      000000E8H   SFRSYM    DATA     BYTE      P6
      000000C8H   SFRSYM    DATA     BYTE      P5
      000000C0H   SFRSYM    DATA     BYTE      P4
      000000B0H   SFRSYM    DATA     BYTE      P3
      000000A0H   SFRSYM    DATA     BYTE      P2
      00000090H   SFRSYM    DATA     BYTE      P1
      00000080H   SFRSYM    DATA     BYTE      P0
      000006C6H   SYMBOL    EDATA    ---       bluetooth_ch9141_buffer
      00000706H   SYMBOL    EDATA    BYTE      bluetooth_ch9141_data
      00000707H   SYMBOL    EDATA    ---       bluetooth_ch9141_fifo

      00FF896AH   BLOCK     CODE     ---       LVL=0
      00FF896AH   LINE      CODE     ---       #67
      00FF896AH   LINE      CODE     ---       #70
      00FF8970H   LINE      CODE     ---       #71
      ---         BLOCKEND  ---      ---       LVL=0
      DR12        REGSYM    ---      DWORD     len
      REG=7       REGSYM    ---      ---       buff
      DR8         REGSYM    ---      DWORD     len

      ---         MODULE    ---      ---       SEEKFREE_DL1A
      00FF81D2H   PUBLIC    CODE     ---       dl1a_get_distance
      00FF6481H   PUBLIC    CODE     ---       dl1a_init
      000007FFH   PUBLIC    EDATA    WORD      dl1a_distance_mm
      00000801H   PUBLIC    EDATA    BYTE      dl1a_finsh_flag
      000000D0H   SFRSYM    DATA     BYTE      PSW
      0000009DH   SFRSYM    DATA     BYTE      IRCBAND
      00000097H   SFRSYM    DATA     BYTE      AUXR2
      000000EFH   SFRSYM    DATA     BYTE      AUXINTIF
      000000FDH   SFRSYM    DATA     BYTE      S4CON
      000000ACH   SFRSYM    DATA     BYTE      S3CON
      0000009AH   SFRSYM    DATA     BYTE      S2CON
      000000B7H   SFRSYM    DATA     BYTE      IPH
      000000CDH   SFRSYM    DATA     BYTE      SPSTAT
      000000DDH   SFRSYM    DATA     BYTE      T4T3M
      000000C1H   SFRSYM    DATA     BYTE      WDT_CONTR
      000000DFH   SFRSYM    DATA     BYTE      IP3
      000000F4H   SFRSYM    DATA     BYTE      USBCON
      000000B5H   SFRSYM    DATA     BYTE      IP2
      000000FFH   SFRSYM    DATA     BYTE      RSTCFG
      000000F9H   SFRSYM    DATA     BYTE      LINICR
      0000008EH   SFRSYM    DATA     BYTE      AUXR
      000000AFH   SFRSYM    DATA     BYTE      IE2
      000000C0H.7 SFRSYM    DATA     BIT       P47
      000000E8H.5 SFRSYM    DATA     BIT       P65
      000000E8H.3 SFRSYM    DATA     BIT       P63
      00000088H   SFRSYM    DATA     BYTE      TCON
      00000098H   SFRSYM    DATA     BYTE      SCON
      000000F1H   SFRSYM    DATA     BYTE      CANICR
      00000087H   SFRSYM    DATA     BYTE      PCON
      000000BCH   SFRSYM    DATA     BYTE      ADC_CONTR
      000000E7H   SFRSYM    DATA     BYTE      CMPCR2
      000000E6H   SFRSYM    DATA     BYTE      CMPCR1
L251 LINKER/LOCATER V4.66.93.0                                                        06/25/2023  18:36:41  PAGE 53


      000000B8H   SFRSYM    DATA     BYTE      IP
      0000008FH   SFRSYM    DATA     BYTE      INTCLKO
      000000EEH   SFRSYM    DATA     BYTE      IP3H
      000000B6H   SFRSYM    DATA     BYTE      IP2H
      000000A8H   SFRSYM    DATA     BYTE      IE
      000000BBH   SFRSYM    DATA     BYTE      P_SW3
      000000BAH   SFRSYM    DATA     BYTE      P_SW2
      000000A2H   SFRSYM    DATA     BYTE      P_SW1
      000000CEH   SFRSYM    DATA     BYTE      SPCTL
      000000F8H   SFRSYM    DATA     BYTE      P7
      000000E8H   SFRSYM    DATA     BYTE      P6
      000000C8H   SFRSYM    DATA     BYTE      P5
      000000C0H   SFRSYM    DATA     BYTE      P4
      000000B0H   SFRSYM    DATA     BYTE      P3
      000000A0H   SFRSYM    DATA     BYTE      P2
      00000090H   SFRSYM    DATA     BYTE      P1
      00000080H   SFRSYM    DATA     BYTE      P0
      00FF88E2H   SYMBOL    CODE     ---       dl1a_simiic_sendack
      00FF85A4H   SYMBOL    CODE     ---       dl1a_timeout_microseconds_to_mclks
      00FF8529H   SYMBOL    CODE     ---       dl1a_timeout_mclks_to_microseconds
      00FF880DH   SYMBOL    CODE     ---       dl1a_set_signal_rate_limit
      00FF85E0H   SYMBOL    CODE     ---       dl1a_read_ch
      00FF8A07H   SYMBOL    CODE     ---       dl1a_decode_timeout
      00FF875CH   SYMBOL    CODE     ---       dl1a_send_ch
      00FF75EFH   SYMBOL    CODE     ---       dl1a_get_spad_info
      00FF86F9H   SYMBOL    CODE     ---       dl1a_encode_timeout
      00FF822FH   SYMBOL    CODE     ---       dl1a_get_sequence_step_enables
      00FF0026H   SYMBOL    CODE     ---       dl1a_sccb_waitack
      00FF0046H   SYMBOL    CODE     ---       dl1a_simiic_delay
      00FF7FC2H   SYMBOL    CODE     ---       dl1a_perform_single_ref_calibration
      00FF7C23H   SYMBOL    CODE     ---       dl1a_get_sequence_step_timeouts
      00FF8A17H   SYMBOL    CODE     ---       dl1a_simiic_start
      00FF82DBH   SYMBOL    CODE     ---       dl1a_simiic_read_regs
      00FF8039H   SYMBOL    CODE     ---       dl1a_get_measurement_timing_budget
      00FF86C4H   SYMBOL    CODE     ---       dl1a_simiic_write_dats
      00FF87E4H   SYMBOL    CODE     ---       dl1a_simiic_read_reg
      00FF832FH   SYMBOL    CODE     ---       dl1a_simiic_read_regs_1
      00FF7A5FH   SYMBOL    CODE     ---       dl1a_set_measurement_timing_budget
      00FF89F6H   SYMBOL    CODE     ---       dl1a_simiic_stop
      00FF889FH   SYMBOL    CODE     ---       dl1a_simiic_write_reg
      00FF8383H   SYMBOL    CODE     ---       dl1a_get_vcsel_pulse_period

      00FF0046H   BLOCK     CODE     ---       LVL=0
      WR6         REGSYM    ---      WORD      j
      00FF0046H   LINE      CODE     ---       #75
      00FF0046H   LINE      CODE     ---       #76
      00FF0046H   LINE      CODE     ---       #77
      00FF004AH   LINE      CODE     ---       #78
      00FF0052H   LINE      CODE     ---       #79
      ---         BLOCKEND  ---      ---       LVL=0

      00FF8A17H   BLOCK     CODE     ---       LVL=0
      00FF8A17H   LINE      CODE     ---       #82
      00FF8A17H   LINE      CODE     ---       #84
      00FF8A19H   LINE      CODE     ---       #85
      00FF8A1BH   LINE      CODE     ---       #86
      00FF8A1EH   LINE      CODE     ---       #87
      00FF8A20H   LINE      CODE     ---       #88
      00FF8A23H   LINE      CODE     ---       #89
      00FF8A25H   LINE      CODE     ---       #90
      ---         BLOCKEND  ---      ---       LVL=0

      00FF89F6H   BLOCK     CODE     ---       LVL=0
      00FF89F6H   LINE      CODE     ---       #93
      00FF89F6H   LINE      CODE     ---       #95
L251 LINKER/LOCATER V4.66.93.0                                                        06/25/2023  18:36:41  PAGE 54


      00FF89F8H   LINE      CODE     ---       #96
      00FF89FAH   LINE      CODE     ---       #97
      00FF89FDH   LINE      CODE     ---       #98
      00FF89FFH   LINE      CODE     ---       #99
      00FF8A02H   LINE      CODE     ---       #100
      00FF8A04H   LINE      CODE     ---       #101
      ---         BLOCKEND  ---      ---       LVL=0

      00FF88E2H   BLOCK     CODE     ---       LVL=0
      R15         REGSYM    ---      BYTE      ack_dat
      00FF88E2H   LINE      CODE     ---       #106
      00FF88E6H   LINE      CODE     ---       #108
      00FF88E8H   LINE      CODE     ---       #109
      00FF88EBH   LINE      CODE     ---       #110
      00FF88F3H   LINE      CODE     ---       #111
      00FF88F5H   LINE      CODE     ---       #113
      00FF88F7H   LINE      CODE     ---       #114
      00FF88FAH   LINE      CODE     ---       #115
      00FF88FCH   LINE      CODE     ---       #116
      00FF88FFH   LINE      CODE     ---       #117
      ---         BLOCKEND  ---      ---       LVL=0

      00FF0026H   BLOCK     CODE     ---       LVL=0
      00FF0026H   LINE      CODE     ---       #120
      00FF0026H   LINE      CODE     ---       #122
      00FF0028H   LINE      CODE     ---       #124
      00FF002BH   LINE      CODE     ---       #126
      00FF002DH   LINE      CODE     ---       #127
      00FF0030H   LINE      CODE     ---       #129
      00FF0033H   LINE      CODE     ---       #132
      00FF0035H   LINE      CODE     ---       #133
      00FF0038H   LINE      CODE     ---       #134
      00FF0038H   LINE      CODE     ---       #136
      00FF003AH   LINE      CODE     ---       #137
      00FF003DH   LINE      CODE     ---       #138
      00FF0041H   LINE      CODE     ---       #139
      ---         BLOCKEND  ---      ---       LVL=0

      00FF875CH   BLOCK     CODE     ---       LVL=0
      R15         REGSYM    ---      BYTE      c
      00FF8760H   BLOCK     CODE     NEAR LAB  LVL=1
      R14         REGSYM    ---      BYTE      i
      ---         BLOCKEND  ---      ---       LVL=1
      00FF875CH   LINE      CODE     ---       #145
      00FF8760H   LINE      CODE     ---       #146
      00FF8760H   LINE      CODE     ---       #147
      00FF8763H   LINE      CODE     ---       #148
      00FF8765H   LINE      CODE     ---       #150
      00FF876EH   LINE      CODE     ---       #151
      00FF8770H   LINE      CODE     ---       #152
      00FF8772H   LINE      CODE     ---       #153
      00FF8775H   LINE      CODE     ---       #154
      00FF8777H   LINE      CODE     ---       #155
      00FF877AH   LINE      CODE     ---       #156
      00FF877CH   LINE      CODE     ---       #157
      00FF8784H   LINE      CODE     ---       #158
      00FF8787H   LINE      CODE     ---       #159
      ---         BLOCKEND  ---      ---       LVL=0

      00FF85E0H   BLOCK     CODE     ---       LVL=0
      R15         REGSYM    ---      BYTE      ack_x
      00FF85E6H   BLOCK     CODE     NEAR LAB  LVL=1
      R13         REGSYM    ---      BYTE      i
      R14         REGSYM    ---      BYTE      c
      ---         BLOCKEND  ---      ---       LVL=1
L251 LINKER/LOCATER V4.66.93.0                                                        06/25/2023  18:36:41  PAGE 55


      00FF85E0H   LINE      CODE     ---       #165
      00FF85E6H   LINE      CODE     ---       #166
      00FF85E6H   LINE      CODE     ---       #169
      00FF85E8H   LINE      CODE     ---       #170
      00FF85EAH   LINE      CODE     ---       #171
      00FF85EDH   LINE      CODE     ---       #172
      00FF85EFH   LINE      CODE     ---       #174
      00FF85F2H   LINE      CODE     ---       #176
      00FF85F5H   LINE      CODE     ---       #177
      00FF85F7H   LINE      CODE     ---       #178
      00FF85FAH   LINE      CODE     ---       #179
      00FF85FCH   LINE      CODE     ---       #180
      00FF85FFH   LINE      CODE     ---       #181
      00FF8601H   LINE      CODE     ---       #182
      00FF8604H   LINE      CODE     ---       #184
      00FF8606H   LINE      CODE     ---       #185
      00FF860AH   LINE      CODE     ---       #188
      00FF860CH   LINE      CODE     ---       #189
      00FF860FH   LINE      CODE     ---       #190
      00FF8614H   LINE      CODE     ---       #192
      00FF8616H   LINE      CODE     ---       #193
      ---         BLOCKEND  ---      ---       LVL=0

      00FF86C4H   BLOCK     CODE     ---       LVL=0
      000006B9H   SYMBOL    EDATA    BYTE      dev_add
      000006BAH   SYMBOL    EDATA    ---       dat
      DR12        REGSYM    ---      DWORD     len
      00FF86C4H   LINE      CODE     ---       #205
      00FF86D0H   LINE      CODE     ---       #207
      00FF86D3H   LINE      CODE     ---       #208
      00FF86D9H   LINE      CODE     ---       #209
      00FF86DBH   LINE      CODE     ---       #211
      00FF86EBH   LINE      CODE     ---       #212
      00FF86F3H   LINE      CODE     ---       #215
      00FF86F6H   LINE      CODE     ---       #216
      ---         BLOCKEND  ---      ---       LVL=0

      00FF889FH   BLOCK     CODE     ---       LVL=0
      R13         REGSYM    ---      BYTE      dev_add
      R14         REGSYM    ---      BYTE      reg
      R15         REGSYM    ---      BYTE      dat
      00FF889FH   LINE      CODE     ---       #228
      00FF88A7H   LINE      CODE     ---       #230
      00FF88AAH   LINE      CODE     ---       #231
      00FF88AFH   LINE      CODE     ---       #232
      00FF88B4H   LINE      CODE     ---       #233
      00FF88B9H   LINE      CODE     ---       #234
      00FF88BCH   LINE      CODE     ---       #235
      ---         BLOCKEND  ---      ---       LVL=0

      00FF87E4H   BLOCK     CODE     ---       LVL=0
      R15         REGSYM    ---      BYTE      dev_add
      R14         REGSYM    ---      BYTE      reg
      00FF87EAH   BLOCK     CODE     NEAR LAB  LVL=1
      R15         REGSYM    ---      BYTE      dat
      ---         BLOCKEND  ---      ---       LVL=1
      00FF87E4H   LINE      CODE     ---       #246
      00FF87EAH   LINE      CODE     ---       #247
      00FF87EAH   LINE      CODE     ---       #249
      00FF87EDH   LINE      CODE     ---       #250
      00FF87F2H   LINE      CODE     ---       #251
      00FF87F7H   LINE      CODE     ---       #254
      00FF87FAH   LINE      CODE     ---       #255
      00FF8803H   LINE      CODE     ---       #256
      00FF8807H   LINE      CODE     ---       #257
L251 LINKER/LOCATER V4.66.93.0                                                        06/25/2023  18:36:41  PAGE 56


      00FF880AH   LINE      CODE     ---       #259
      00FF880AH   LINE      CODE     ---       #260
      ---         BLOCKEND  ---      ---       LVL=0

      00FF82DBH   BLOCK     CODE     ---       LVL=0
      000006C0H   SYMBOL    EDATA    BYTE      dev_add
      000006C1H   SYMBOL    EDATA    BYTE      reg
      REG=3       REGSYM    ---      ---       dat_add
      000006C2H   SYMBOL    EDATA    DWORD     num
      00FF82DBH   LINE      CODE     ---       #273
      00FF82E7H   LINE      CODE     ---       #275
      00FF82EAH   LINE      CODE     ---       #276
      00FF82F3H   LINE      CODE     ---       #277
      00FF82FAH   LINE      CODE     ---       #280
      00FF82FDH   LINE      CODE     ---       #281
      00FF8308H   LINE      CODE     ---       #282
      00FF830AH   LINE      CODE     ---       #284
      00FF8312H   LINE      CODE     ---       #285
      00FF8314H   LINE      CODE     ---       #286
      00FF8322H   LINE      CODE     ---       #287
      00FF8329H   LINE      CODE     ---       #288
      00FF832CH   LINE      CODE     ---       #289
      ---         BLOCKEND  ---      ---       LVL=0

      00FF832FH   BLOCK     CODE     ---       LVL=0
      0000067EH   SYMBOL    EDATA    BYTE      dev_add
      0000067FH   SYMBOL    EDATA    BYTE      reg
      REG=3       REGSYM    ---      ---       dat_add
      00000680H   SYMBOL    EDATA    DWORD     num
      00FF832FH   LINE      CODE     ---       #302
      00FF833BH   LINE      CODE     ---       #304
      00FF833EH   LINE      CODE     ---       #305
      00FF8347H   LINE      CODE     ---       #306
      00FF834EH   LINE      CODE     ---       #309
      00FF8351H   LINE      CODE     ---       #310
      00FF835CH   LINE      CODE     ---       #311
      00FF835EH   LINE      CODE     ---       #313
      00FF8366H   LINE      CODE     ---       #314
      00FF8368H   LINE      CODE     ---       #315
      00FF8376H   LINE      CODE     ---       #316
      00FF837DH   LINE      CODE     ---       #317
      00FF8380H   LINE      CODE     ---       #318
      ---         BLOCKEND  ---      ---       LVL=0

      00FF75EFH   BLOCK     CODE     ---       LVL=0
      00000696H   SYMBOL    EDATA    ---       index
      REG=3       REGSYM    ---      ---       type_is_aperture
      00FF75F7H   BLOCK     CODE     NEAR LAB  LVL=1
      0000069AH   SYMBOL    EDATA    BYTE      tmp
      0000069BH   SYMBOL    EDATA    BYTE      return_state
      0000069CH   SYMBOL    EDATA    WORD      loop_count
      ---         BLOCKEND  ---      ---       LVL=1
      00FF75EFH   LINE      CODE     ---       #350
      00FF75F7H   LINE      CODE     ---       #351
      00FF75F7H   LINE      CODE     ---       #352
      00FF75FCH   LINE      CODE     ---       #353
      00FF7600H   LINE      CODE     ---       #354
      00FF7606H   LINE      CODE     ---       #356
      00FF7606H   LINE      CODE     ---       #358
      00FF7611H   LINE      CODE     ---       #359
      00FF761CH   LINE      CODE     ---       #360
      00FF7625H   LINE      CODE     ---       #362
      00FF7630H   LINE      CODE     ---       #363
      00FF7644H   LINE      CODE     ---       #364
      00FF7653H   LINE      CODE     ---       #365
L251 LINKER/LOCATER V4.66.93.0                                                        06/25/2023  18:36:41  PAGE 57


      00FF765EH   LINE      CODE     ---       #366
      00FF7669H   LINE      CODE     ---       #368
      00FF7674H   LINE      CODE     ---       #370
      00FF767FH   LINE      CODE     ---       #371
      00FF7689H   LINE      CODE     ---       #373
      00FF768EH   LINE      CODE     ---       #374
      00FF7690H   LINE      CODE     ---       #376
      00FF76A4H   LINE      CODE     ---       #377
      00FF76AEH   LINE      CODE     ---       #378
      00FF76B8H   LINE      CODE     ---       #380
      00FF76BEH   LINE      CODE     ---       #381
      00FF76C0H   LINE      CODE     ---       #382
      00FF76C7H   LINE      CODE     ---       #385
      00FF76D0H   LINE      CODE     ---       #387
      00FF76D0H   LINE      CODE     ---       #388
      00FF76D0H   LINE      CODE     ---       #389
      00FF76DBH   LINE      CODE     ---       #390
      00FF76EFH   LINE      CODE     ---       #392
      00FF76FCH   LINE      CODE     ---       #393
      00FF7706H   LINE      CODE     ---       #395
      00FF7710H   LINE      CODE     ---       #396
      00FF771BH   LINE      CODE     ---       #397
      00FF772FH   LINE      CODE     ---       #398
      00FF773BH   LINE      CODE     ---       #399
      00FF7746H   LINE      CODE     ---       #400
      00FF7750H   LINE      CODE     ---       #402
      00FF775AH   LINE      CODE     ---       #403
      00FF7764H   LINE      CODE     ---       #404
      00FF7764H   LINE      CODE     ---       #406
      00FF7768H   LINE      CODE     ---       #407
      ---         BLOCKEND  ---      ---       LVL=0

      00FF8529H   BLOCK     CODE     ---       LVL=0
      WR30        REGSYM    ---      WORD      timeout_period_mclks
      R5          REGSYM    ---      BYTE      vcsel_period_pclks
      00FF852BH   BLOCK     CODE     NEAR LAB  LVL=1
      DR24        REGSYM    ---      DWORD     macro_period_ns
      ---         BLOCKEND  ---      ---       LVL=1
      00FF8529H   LINE      CODE     ---       #417
      00FF852BH   LINE      CODE     ---       #418
      00FF852BH   LINE      CODE     ---       #419
      00FF854CH   LINE      CODE     ---       #421
      ---         BLOCKEND  ---      ---       LVL=0

      00FF85A4H   BLOCK     CODE     ---       LVL=0
      DR28        REGSYM    ---      DWORD     timeout_period_us
      R3          REGSYM    ---      BYTE      vcsel_period_pclks
      00FF85A6H   BLOCK     CODE     NEAR LAB  LVL=1
      DR8         REGSYM    ---      DWORD     macro_period_ns
      ---         BLOCKEND  ---      ---       LVL=1
      00FF85A4H   LINE      CODE     ---       #432
      00FF85A6H   LINE      CODE     ---       #433
      00FF85A6H   LINE      CODE     ---       #434
      00FF85C7H   LINE      CODE     ---       #436
      ---         BLOCKEND  ---      ---       LVL=0

      00FF8A07H   BLOCK     CODE     ---       LVL=0
      WR4         REGSYM    ---      WORD      reg_val
      00FF8A07H   LINE      CODE     ---       #446
      00FF8A09H   LINE      CODE     ---       #449
      00FF8A16H   LINE      CODE     ---       #451
      ---         BLOCKEND  ---      ---       LVL=0

      00FF86F9H   BLOCK     CODE     ---       LVL=0
      WR2         REGSYM    ---      WORD      timeout_mclks
L251 LINKER/LOCATER V4.66.93.0                                                        06/25/2023  18:36:41  PAGE 58


      00FF86FBH   BLOCK     CODE     NEAR LAB  LVL=1
      DR8         REGSYM    ---      DWORD     ls_byte
      WR4         REGSYM    ---      WORD      ms_byte
      WR6         REGSYM    ---      WORD      return_data
      ---         BLOCKEND  ---      ---       LVL=1
      00FF86F9H   LINE      CODE     ---       #460
      00FF86FBH   LINE      CODE     ---       #461
      00FF86FBH   LINE      CODE     ---       #462
      00FF86FBH   LINE      CODE     ---       #463
      00FF86FFH   LINE      CODE     ---       #464
      00FF86FFH   LINE      CODE     ---       #466
      00FF8705H   LINE      CODE     ---       #469
      00FF870BH   LINE      CODE     ---       #470
      00FF870DH   LINE      CODE     ---       #472
      00FF8716H   LINE      CODE     ---       #473
      00FF8718H   LINE      CODE     ---       #474
      00FF8722H   LINE      CODE     ---       #475
      00FF872CH   LINE      CODE     ---       #476
      00FF872CH   LINE      CODE     ---       #477
      00FF872CH   LINE      CODE     ---       #478
      ---         BLOCKEND  ---      ---       LVL=0

      00FF822FH   BLOCK     CODE     ---       LVL=0
      REG=3       REGSYM    ---      ---       enables
      00FF8233H   BLOCK     CODE     NEAR LAB  LVL=1
      000006B9H   SYMBOL    EDATA    BYTE      sequence_config
      ---         BLOCKEND  ---      ---       LVL=1
      00FF822FH   LINE      CODE     ---       #487
      00FF8233H   LINE      CODE     ---       #488
      00FF8233H   LINE      CODE     ---       #489
      00FF8238H   LINE      CODE     ---       #490
      00FF8249H   LINE      CODE     ---       #492
      00FF8253H   LINE      CODE     ---       #493
      00FF825FH   LINE      CODE     ---       #494
      00FF826DH   LINE      CODE     ---       #495
      00FF8279H   LINE      CODE     ---       #496
      00FF8284H   LINE      CODE     ---       #497
      ---         BLOCKEND  ---      ---       LVL=0

      00FF8383H   BLOCK     CODE     ---       LVL=0
      WR6         REGSYM    ---      INT       type
      000006BFH   SYMBOL    EDATA    BYTE      data_buffer
      00FF8383H   LINE      CODE     ---       #506
      00FF8383H   LINE      CODE     ---       #507
      00FF8383H   LINE      CODE     ---       #508
      00FF8388H   LINE      CODE     ---       #509
      00FF838CH   LINE      CODE     ---       #511
      00FF8399H   LINE      CODE     ---       #512
      00FF8399H   LINE      CODE     ---       #513
      00FF839BH   LINE      CODE     ---       #514
      00FF83A1H   LINE      CODE     ---       #516
      00FF83B5H   LINE      CODE     ---       #517
      00FF83C3H   LINE      CODE     ---       #518
      00FF83C5H   LINE      CODE     ---       #521
      00FF83CBH   LINE      CODE     ---       #522
      00FF83CBH   LINE      CODE     ---       #523
      00FF83CFH   LINE      CODE     ---       #524
      ---         BLOCKEND  ---      ---       LVL=0

      00FF7C23H   BLOCK     CODE     ---       LVL=0
      000006B9H   SYMBOL    EDATA    ---       enables
      REG=3       REGSYM    ---      ---       timeouts
      00FF7C2BH   BLOCK     CODE     NEAR LAB  LVL=1
      000006BDH   SYMBOL    EDATA    ---       reg_buffer
      WR6         REGSYM    ---      WORD      reg16_buffer
L251 LINKER/LOCATER V4.66.93.0                                                        06/25/2023  18:36:41  PAGE 59


      ---         BLOCKEND  ---      ---       LVL=1
      00FF7C23H   LINE      CODE     ---       #534
      00FF7C2BH   LINE      CODE     ---       #535
      00FF7C2BH   LINE      CODE     ---       #537
      00FF7C2BH   LINE      CODE     ---       #539
      00FF7C35H   LINE      CODE     ---       #541
      00FF7C49H   LINE      CODE     ---       #542
      00FF7C55H   LINE      CODE     ---       #543
      00FF7C63H   LINE      CODE     ---       #545
      00FF7C77H   LINE      CODE     ---       #546
      00FF7C83H   LINE      CODE     ---       #547
      00FF7C8AH   LINE      CODE     ---       #548
      00FF7C98H   LINE      CODE     ---       #550
      00FF7CA5H   LINE      CODE     ---       #552
      00FF7CB9H   LINE      CODE     ---       #553
      00FF7CC5H   LINE      CODE     ---       #554
      00FF7CCCH   LINE      CODE     ---       #556
      00FF7CD6H   LINE      CODE     ---       #558
      00FF7CE8H   LINE      CODE     ---       #559
      00FF7CE8H   LINE      CODE     ---       #561
      00FF7CFBH   LINE      CODE     ---       #562
      ---         BLOCKEND  ---      ---       LVL=0

      00FF7FC2H   BLOCK     CODE     ---       LVL=0
      R10         REGSYM    ---      BYTE      vhv_init_byte
      00FF7FC6H   BLOCK     CODE     NEAR LAB  LVL=1
      R15         REGSYM    ---      BYTE      return_state
      00000696H   SYMBOL    EDATA    BYTE      data_buffer
      00000697H   SYMBOL    EDATA    WORD      loop_count
      ---         BLOCKEND  ---      ---       LVL=1
      00FF7FC2H   LINE      CODE     ---       #571
      00FF7FC6H   LINE      CODE     ---       #572
      00FF7FC6H   LINE      CODE     ---       #573
      00FF7FC8H   LINE      CODE     ---       #574
      00FF7FCDH   LINE      CODE     ---       #575
      00FF7FD3H   LINE      CODE     ---       #576
      00FF7FD3H   LINE      CODE     ---       #578
      00FF7FDDH   LINE      CODE     ---       #579
      00FF7FDDH   LINE      CODE     ---       #580
      00FF7FDFH   LINE      CODE     ---       #582
      00FF7FE9H   LINE      CODE     ---       #584
      00FF7FECH   LINE      CODE     ---       #585
      00FF7FEEH   LINE      CODE     ---       #586
      00FF7FEEH   LINE      CODE     ---       #587
      00FF8000H   LINE      CODE     ---       #589
      00FF8014H   LINE      CODE     ---       #590
      00FF801CH   LINE      CODE     ---       #592
      00FF8020H   LINE      CODE     ---       #594
      00FF8020H   LINE      CODE     ---       #595
      00FF8020H   LINE      CODE     ---       #596
      00FF802BH   LINE      CODE     ---       #597
      00FF8034H   LINE      CODE     ---       #598
      00FF8034H   LINE      CODE     ---       #600
      00FF8036H   LINE      CODE     ---       #601
      ---         BLOCKEND  ---      ---       LVL=0

      00FF7A5FH   BLOCK     CODE     ---       LVL=0
      DR12        REGSYM    ---      DWORD     budget_us
      00FF7A63H   BLOCK     CODE     NEAR LAB  LVL=1
      00000696H   SYMBOL    EDATA    BYTE      return_state
      00000697H   SYMBOL    EDATA    ---       data_buffer
      WR6         REGSYM    ---      WORD      dat
      0000069AH   SYMBOL    EDATA    DWORD     used_budget_us
      DR4         REGSYM    ---      DWORD     final_range_timeout_us
      WR6         REGSYM    ---      WORD      final_range_timeout_mclks
L251 LINKER/LOCATER V4.66.93.0                                                        06/25/2023  18:36:41  PAGE 60


      0000069EH   SYMBOL    EDATA    ---       enables
      000006A3H   SYMBOL    EDATA    ---       timeouts
      ---         BLOCKEND  ---      ---       LVL=1
      00FF7A5FH   LINE      CODE     ---       #614
      00FF7A63H   LINE      CODE     ---       #615
      00FF7A63H   LINE      CODE     ---       #616
      00FF7A68H   LINE      CODE     ---       #618
      00FF7A68H   LINE      CODE     ---       #626
      00FF7A68H   LINE      CODE     ---       #628
      00FF7A6EH   LINE      CODE     ---       #630
      00FF7A6EH   LINE      CODE     ---       #631
      00FF7A71H   LINE      CODE     ---       #632
      00FF7A71H   LINE      CODE     ---       #634
      00FF7A79H   LINE      CODE     ---       #635
      00FF7A80H   LINE      CODE     ---       #636
      00FF7A8BH   LINE      CODE     ---       #638
      00FF7A91H   LINE      CODE     ---       #640
      00FF7AA1H   LINE      CODE     ---       #641
      00FF7AA1H   LINE      CODE     ---       #643
      00FF7AA7H   LINE      CODE     ---       #645
      00FF7AB3H   LINE      CODE     ---       #646
      00FF7AB5H   LINE      CODE     ---       #647
      00FF7ABBH   LINE      CODE     ---       #649
      00FF7ACDH   LINE      CODE     ---       #650
      00FF7ACDH   LINE      CODE     ---       #652
      00FF7AD3H   LINE      CODE     ---       #654
      00FF7AE5H   LINE      CODE     ---       #655
      00FF7AE5H   LINE      CODE     ---       #657
      00FF7AEBH   LINE      CODE     ---       #662
      00FF7AF7H   LINE      CODE     ---       #663
      00FF7AFFH   LINE      CODE     ---       #666
      00FF7B05H   LINE      CODE     ---       #667
      00FF7B07H   LINE      CODE     ---       #668
      00FF7B07H   LINE      CODE     ---       #673
      00FF7B0BH   LINE      CODE     ---       #674
      00FF7B12H   LINE      CODE     ---       #678
      00FF7B18H   LINE      CODE     ---       #680
      00FF7B1EH   LINE      CODE     ---       #681
      00FF7B1EH   LINE      CODE     ---       #683
      00FF7B21H   LINE      CODE     ---       #684
      00FF7B27H   LINE      CODE     ---       #685
      00FF7B2BH   LINE      CODE     ---       #686
      00FF7B2FH   LINE      CODE     ---       #687
      00FF7B3CH   LINE      CODE     ---       #688
      00FF7B3CH   LINE      CODE     ---       #690
      00FF7B40H   LINE      CODE     ---       #691
      ---         BLOCKEND  ---      ---       LVL=0

      00FF8039H   BLOCK     CODE     ---       LVL=0
      00FF803BH   BLOCK     CODE     NEAR LAB  LVL=1
      00000696H   SYMBOL    EDATA    ---       enables
      0000069BH   SYMBOL    EDATA    ---       timeouts
      DR12        REGSYM    ---      DWORD     budget_us
      ---         BLOCKEND  ---      ---       LVL=1
      00FF8039H   LINE      CODE     ---       #700
      00FF803BH   LINE      CODE     ---       #701
      00FF803BH   LINE      CODE     ---       #706
      00FF803FH   LINE      CODE     ---       #708
      00FF8046H   LINE      CODE     ---       #709
      00FF8051H   LINE      CODE     ---       #711
      00FF8057H   LINE      CODE     ---       #713
      00FF8063H   LINE      CODE     ---       #714
      00FF8063H   LINE      CODE     ---       #716
      00FF8069H   LINE      CODE     ---       #718
      00FF8075H   LINE      CODE     ---       #719
L251 LINKER/LOCATER V4.66.93.0                                                        06/25/2023  18:36:41  PAGE 61


      00FF8077H   LINE      CODE     ---       #720
      00FF807DH   LINE      CODE     ---       #722
      00FF8087H   LINE      CODE     ---       #723
      00FF8087H   LINE      CODE     ---       #725
      00FF808DH   LINE      CODE     ---       #727
      00FF8097H   LINE      CODE     ---       #728
      00FF8097H   LINE      CODE     ---       #730
      00FF809DH   LINE      CODE     ---       #732
      00FF80A7H   LINE      CODE     ---       #733
      00FF80A7H   LINE      CODE     ---       #735
      00FF80A9H   LINE      CODE     ---       #736
      ---         BLOCKEND  ---      ---       LVL=0

      00FF880DH   BLOCK     CODE     ---       LVL=0
      DR4         REGSYM    ---      FLOAT     limit_mcps
      00000696H   SYMBOL    EDATA    ---       data_buffer
      WR6         REGSYM    ---      WORD      limit_mcps_16bit
      00FF880DH   LINE      CODE     ---       #749
      00FF880DH   LINE      CODE     ---       #750
      00FF880DH   LINE      CODE     ---       #752
      00FF8819H   LINE      CODE     ---       #756
      00FF881FH   LINE      CODE     ---       #757
      00FF8823H   LINE      CODE     ---       #758
      00FF8827H   LINE      CODE     ---       #760
      ---         BLOCKEND  ---      ---       LVL=0

      00FF81D2H   BLOCK     CODE     ---       LVL=0
      0000067BH   SYMBOL    EDATA    ---       reg_databuffer
      00FF81D2H   LINE      CODE     ---       #770
      00FF81D2H   LINE      CODE     ---       #771
      00FF81D2H   LINE      CODE     ---       #774
      00FF81E6H   LINE      CODE     ---       #775
      00FF81EEH   LINE      CODE     ---       #777
      00FF81EFH   LINE      CODE     ---       #778
      00FF81F1H   LINE      CODE     ---       #782
      00FF8205H   LINE      CODE     ---       #783
      00FF820FH   LINE      CODE     ---       #784
      00FF821DH   LINE      CODE     ---       #786
      00FF8228H   LINE      CODE     ---       #787
      00FF822EH   LINE      CODE     ---       #788
      00FF822EH   LINE      CODE     ---       #789
      ---         BLOCKEND  ---      ---       LVL=0

      00FF6481H   BLOCK     CODE     ---       LVL=0
      00FF6485H   BLOCK     CODE     NEAR LAB  LVL=1
      00000684H   SYMBOL    EDATA    DWORD     measurement_timing_budget_us
      00000688H   SYMBOL    EDATA    BYTE      stop_variable
      R15         REGSYM    ---      BYTE      return_state
      R14         REGSYM    ---      BYTE      reg_data_buffer
      00000689H   SYMBOL    EDATA    ---       ref_spad_map
      0000068FH   SYMBOL    EDATA    ---       data_buffer
      R13         REGSYM    ---      BYTE      i
      ---         BLOCKEND  ---      ---       LVL=1
      00FF6481H   LINE      CODE     ---       #798
      00FF6485H   LINE      CODE     ---       #799
      00FF6485H   LINE      CODE     ---       #800
      00FF6485H   LINE      CODE     ---       #801
      00FF648AH   LINE      CODE     ---       #802
      00FF648CH   LINE      CODE     ---       #803
      00FF648CH   LINE      CODE     ---       #806
      00FF648CH   LINE      CODE     ---       #808
      00FF6497H   LINE      CODE     ---       #809
      00FF64A3H   LINE      CODE     ---       #811
      00FF64A3H   LINE      CODE     ---       #813
      00FF64AAH   LINE      CODE     ---       #814
L251 LINKER/LOCATER V4.66.93.0                                                        06/25/2023  18:36:41  PAGE 62


      00FF64ACH   LINE      CODE     ---       #815
      00FF64B3H   LINE      CODE     ---       #816
      00FF64B5H   LINE      CODE     ---       #817
      00FF64BCH   LINE      CODE     ---       #820
      00FF64C6H   LINE      CODE     ---       #821
      00FF64D3H   LINE      CODE     ---       #823
      00FF64DDH   LINE      CODE     ---       #825
      00FF64E8H   LINE      CODE     ---       #826
      00FF64F3H   LINE      CODE     ---       #827
      00FF64FCH   LINE      CODE     ---       #829
      00FF6510H   LINE      CODE     ---       #831
      00FF651AH   LINE      CODE     ---       #832
      00FF6524H   LINE      CODE     ---       #833
      00FF652EH   LINE      CODE     ---       #836
      00FF6538H   LINE      CODE     ---       #837
      00FF6545H   LINE      CODE     ---       #839
      00FF654EH   LINE      CODE     ---       #840
      00FF6559H   LINE      CODE     ---       #844
      00FF6566H   LINE      CODE     ---       #846
      00FF6569H   LINE      CODE     ---       #851
      00FF6574H   LINE      CODE     ---       #852
      00FF6577H   LINE      CODE     ---       #853
      00FF6577H   LINE      CODE     ---       #856
      00FF658BH   LINE      CODE     ---       #858
      00FF6596H   LINE      CODE     ---       #859
      00FF65A0H   LINE      CODE     ---       #860
      00FF65ABH   LINE      CODE     ---       #861
      00FF65B5H   LINE      CODE     ---       #862
      00FF65C0H   LINE      CODE     ---       #864
      00FF65D1H   LINE      CODE     ---       #865
      00FF65D3H   LINE      CODE     ---       #867
      00FF65E5H   LINE      CODE     ---       #872
      00FF6613H   LINE      CODE     ---       #873
      00FF6615H   LINE      CODE     ---       #874
      00FF6638H   LINE      CODE     ---       #876
      00FF6641H   LINE      CODE     ---       #877
      00FF6648H   LINE      CODE     ---       #880
      00FF664EH   LINE      CODE     ---       #881
      00FF6651H   LINE      CODE     ---       #883
      00FF665BH   LINE      CODE     ---       #884
      00FF6662H   LINE      CODE     ---       #885
      00FF666FH   LINE      CODE     ---       #888
      00FF667AH   LINE      CODE     ---       #889
      00FF6683H   LINE      CODE     ---       #890
      00FF668DH   LINE      CODE     ---       #891
      00FF6697H   LINE      CODE     ---       #892
      00FF66A1H   LINE      CODE     ---       #893
      00FF66ABH   LINE      CODE     ---       #894
      00FF66B6H   LINE      CODE     ---       #895
      00FF66C1H   LINE      CODE     ---       #896
      00FF66CBH   LINE      CODE     ---       #897
      00FF66D6H   LINE      CODE     ---       #898
      00FF66E1H   LINE      CODE     ---       #899
      00FF66EBH   LINE      CODE     ---       #900
      00FF66F6H   LINE      CODE     ---       #901
      00FF6700H   LINE      CODE     ---       #902
      00FF670BH   LINE      CODE     ---       #903
      00FF6715H   LINE      CODE     ---       #904
      00FF6720H   LINE      CODE     ---       #905
      00FF672BH   LINE      CODE     ---       #906
      00FF6736H   LINE      CODE     ---       #907
      00FF6741H   LINE      CODE     ---       #908
      00FF674BH   LINE      CODE     ---       #909
      00FF6755H   LINE      CODE     ---       #910
      00FF6760H   LINE      CODE     ---       #911
L251 LINKER/LOCATER V4.66.93.0                                                        06/25/2023  18:36:41  PAGE 63


      00FF676AH   LINE      CODE     ---       #912
      00FF6775H   LINE      CODE     ---       #913
      00FF6780H   LINE      CODE     ---       #914
      00FF678BH   LINE      CODE     ---       #915
      00FF6795H   LINE      CODE     ---       #916
      00FF679FH   LINE      CODE     ---       #917
      00FF67A9H   LINE      CODE     ---       #918
      00FF67B3H   LINE      CODE     ---       #919
      00FF67BEH   LINE      CODE     ---       #920
      00FF67C9H   LINE      CODE     ---       #921
      00FF67D4H   LINE      CODE     ---       #922
      00FF67DFH   LINE      CODE     ---       #923
      00FF67EAH   LINE      CODE     ---       #924
      00FF67F4H   LINE      CODE     ---       #925
      00FF67FEH   LINE      CODE     ---       #926
      00FF6809H   LINE      CODE     ---       #927
      00FF6813H   LINE      CODE     ---       #928
      00FF681EH   LINE      CODE     ---       #929
      00FF6829H   LINE      CODE     ---       #930
      00FF6834H   LINE      CODE     ---       #931
      00FF683EH   LINE      CODE     ---       #932
      00FF6849H   LINE      CODE     ---       #933
      00FF6854H   LINE      CODE     ---       #934
      00FF685FH   LINE      CODE     ---       #935
      00FF686AH   LINE      CODE     ---       #936
      00FF6875H   LINE      CODE     ---       #937
      00FF6880H   LINE      CODE     ---       #938
      00FF688BH   LINE      CODE     ---       #939
      00FF6895H   LINE      CODE     ---       #940
      00FF68A0H   LINE      CODE     ---       #941
      00FF68ABH   LINE      CODE     ---       #942
      00FF68B6H   LINE      CODE     ---       #943
      00FF68C1H   LINE      CODE     ---       #944
      00FF68CCH   LINE      CODE     ---       #945
      00FF68D7H   LINE      CODE     ---       #946
      00FF68E2H   LINE      CODE     ---       #947
      00FF68ECH   LINE      CODE     ---       #948
      00FF68F6H   LINE      CODE     ---       #949
      00FF6901H   LINE      CODE     ---       #950
      00FF690CH   LINE      CODE     ---       #951
      00FF6917H   LINE      CODE     ---       #952
      00FF6921H   LINE      CODE     ---       #953
      00FF692CH   LINE      CODE     ---       #954
      00FF6937H   LINE      CODE     ---       #955
      00FF6942H   LINE      CODE     ---       #956
      00FF694CH   LINE      CODE     ---       #957
      00FF6956H   LINE      CODE     ---       #958
      00FF6961H   LINE      CODE     ---       #959
      00FF696CH   LINE      CODE     ---       #960
      00FF6976H   LINE      CODE     ---       #961
      00FF6981H   LINE      CODE     ---       #962
      00FF698CH   LINE      CODE     ---       #963
      00FF6997H   LINE      CODE     ---       #964
      00FF69A2H   LINE      CODE     ---       #965
      00FF69ACH   LINE      CODE     ---       #966
      00FF69B6H   LINE      CODE     ---       #967
      00FF69C0H   LINE      CODE     ---       #970
      00FF69CBH   LINE      CODE     ---       #971
      00FF69D5H   LINE      CODE     ---       #972
      00FF69E2H   LINE      CODE     ---       #973
      00FF69EDH   LINE      CODE     ---       #975
      00FF69F4H   LINE      CODE     ---       #980
      00FF69FFH   LINE      CODE     ---       #981
      00FF6A06H   LINE      CODE     ---       #984
      00FF6A11H   LINE      CODE     ---       #985
L251 LINKER/LOCATER V4.66.93.0                                                        06/25/2023  18:36:41  PAGE 64


      00FF6A18H   LINE      CODE     ---       #987
      00FF6A18H   LINE      CODE     ---       #988
      00FF6A1AH   LINE      CODE     ---       #989
      00FF6A1AH   LINE      CODE     ---       #990
      00FF6A25H   LINE      CODE     ---       #991
      00FF6A2BH   LINE      CODE     ---       #993
      00FF6A2EH   LINE      CODE     ---       #994
      00FF6A30H   LINE      CODE     ---       #995
      00FF6A30H   LINE      CODE     ---       #996
      00FF6A3BH   LINE      CODE     ---       #998
      00FF6A42H   LINE      CODE     ---       #1000
      00FF6A4DH   LINE      CODE     ---       #1001
      00FF6A58H   LINE      CODE     ---       #1002
      00FF6A61H   LINE      CODE     ---       #1003
      00FF6A6DH   LINE      CODE     ---       #1004
      00FF6A77H   LINE      CODE     ---       #1005
      00FF6A81H   LINE      CODE     ---       #1006
      00FF6A8BH   LINE      CODE     ---       #1008
      00FF6A95H   LINE      CODE     ---       #1009
      00FF6A95H   LINE      CODE     ---       #1011
      00FF6A97H   LINE      CODE     ---       #1012
      ---         BLOCKEND  ---      ---       LVL=0

      ---         MODULE    ---      ---       SEEKFREE_FONT
      00FF4C9EH   PUBLIC    CODE     ---       oled_8x16
      00FF528EH   PUBLIC    CODE     ---       Hzk
      00FF52CEH   PUBLIC    CODE     ---       tft_ascii
      00FF58BEH   PUBLIC    CODE     ---       oled_6x8
      000000D0H   SFRSYM    DATA     BYTE      PSW
      0000009DH   SFRSYM    DATA     BYTE      IRCBAND
      00000097H   SFRSYM    DATA     BYTE      AUXR2
      000000EFH   SFRSYM    DATA     BYTE      AUXINTIF
      000000FDH   SFRSYM    DATA     BYTE      S4CON
      000000ACH   SFRSYM    DATA     BYTE      S3CON
      0000009AH   SFRSYM    DATA     BYTE      S2CON
      000000B7H   SFRSYM    DATA     BYTE      IPH
      000000CDH   SFRSYM    DATA     BYTE      SPSTAT
      000000DDH   SFRSYM    DATA     BYTE      T4T3M
      000000C1H   SFRSYM    DATA     BYTE      WDT_CONTR
      000000DFH   SFRSYM    DATA     BYTE      IP3
      000000F4H   SFRSYM    DATA     BYTE      USBCON
      000000B5H   SFRSYM    DATA     BYTE      IP2
      000000FFH   SFRSYM    DATA     BYTE      RSTCFG
      000000F9H   SFRSYM    DATA     BYTE      LINICR
      0000008EH   SFRSYM    DATA     BYTE      AUXR
      000000AFH   SFRSYM    DATA     BYTE      IE2
      00000088H   SFRSYM    DATA     BYTE      TCON
      00000098H   SFRSYM    DATA     BYTE      SCON
      000000F1H   SFRSYM    DATA     BYTE      CANICR
      00000087H   SFRSYM    DATA     BYTE      PCON
      000000BCH   SFRSYM    DATA     BYTE      ADC_CONTR
      000000E7H   SFRSYM    DATA     BYTE      CMPCR2
      000000E6H   SFRSYM    DATA     BYTE      CMPCR1
      000000B8H   SFRSYM    DATA     BYTE      IP
      0000008FH   SFRSYM    DATA     BYTE      INTCLKO
      000000EEH   SFRSYM    DATA     BYTE      IP3H
      000000B6H   SFRSYM    DATA     BYTE      IP2H
      000000A8H   SFRSYM    DATA     BYTE      IE
      000000BBH   SFRSYM    DATA     BYTE      P_SW3
      000000BAH   SFRSYM    DATA     BYTE      P_SW2
      000000A2H   SFRSYM    DATA     BYTE      P_SW1
      000000CEH   SFRSYM    DATA     BYTE      SPCTL
      000000F8H   SFRSYM    DATA     BYTE      P7
      000000E8H   SFRSYM    DATA     BYTE      P6
      000000C8H   SFRSYM    DATA     BYTE      P5
L251 LINKER/LOCATER V4.66.93.0                                                        06/25/2023  18:36:41  PAGE 65


      000000C0H   SFRSYM    DATA     BYTE      P4
      000000B0H   SFRSYM    DATA     BYTE      P3
      000000A0H   SFRSYM    DATA     BYTE      P2
      00000090H   SFRSYM    DATA     BYTE      P1
      00000080H   SFRSYM    DATA     BYTE      P0

      ---         MODULE    ---      ---       SEEKFREE_ICM20602
      00FF7CFEH   PUBLIC    CODE     ---       icm20602_init
      000007C5H   PUBLIC    EDATA    INT       icm20602_acc_x
      000007C7H   PUBLIC    EDATA    INT       icm20602_acc_y
      000007C9H   PUBLIC    EDATA    INT       icm20602_acc_z
      000007CBH   PUBLIC    EDATA    INT       icm20602_gyro_x
      000007CDH   PUBLIC    EDATA    INT       icm20602_gyro_y
      000007CFH   PUBLIC    EDATA    INT       icm20602_gyro_z
      000000D0H   SFRSYM    DATA     BYTE      PSW
      0000009DH   SFRSYM    DATA     BYTE      IRCBAND
      00000097H   SFRSYM    DATA     BYTE      AUXR2
      000000EFH   SFRSYM    DATA     BYTE      AUXINTIF
      000000FDH   SFRSYM    DATA     BYTE      S4CON
      000000ACH   SFRSYM    DATA     BYTE      S3CON
      0000009AH   SFRSYM    DATA     BYTE      S2CON
      000000B7H   SFRSYM    DATA     BYTE      IPH
      000000CDH   SFRSYM    DATA     BYTE      SPSTAT
      000000DDH   SFRSYM    DATA     BYTE      T4T3M
      000000C1H   SFRSYM    DATA     BYTE      WDT_CONTR
      000000DFH   SFRSYM    DATA     BYTE      IP3
      000000F4H   SFRSYM    DATA     BYTE      USBCON
      000000B5H   SFRSYM    DATA     BYTE      IP2
      000000FFH   SFRSYM    DATA     BYTE      RSTCFG
      000000F9H   SFRSYM    DATA     BYTE      LINICR
      0000008EH   SFRSYM    DATA     BYTE      AUXR
      000000AFH   SFRSYM    DATA     BYTE      IE2
      000000C0H.3 SFRSYM    DATA     BIT       P43
      000000C0H.2 SFRSYM    DATA     BIT       P42
      00000088H   SFRSYM    DATA     BYTE      TCON
      000000C0H.1 SFRSYM    DATA     BIT       P41
      00000098H   SFRSYM    DATA     BYTE      SCON
      000000C0H.0 SFRSYM    DATA     BIT       P40
      000000F1H   SFRSYM    DATA     BYTE      CANICR
      00000087H   SFRSYM    DATA     BYTE      PCON
      000000BCH   SFRSYM    DATA     BYTE      ADC_CONTR
      000000E7H   SFRSYM    DATA     BYTE      CMPCR2
      000000E6H   SFRSYM    DATA     BYTE      CMPCR1
      000000B8H   SFRSYM    DATA     BYTE      IP
      0000008FH   SFRSYM    DATA     BYTE      INTCLKO
      000000EEH   SFRSYM    DATA     BYTE      IP3H
      000000B6H   SFRSYM    DATA     BYTE      IP2H
      000000A8H   SFRSYM    DATA     BYTE      IE
      000000BBH   SFRSYM    DATA     BYTE      P_SW3
      000000BAH   SFRSYM    DATA     BYTE      P_SW2
      000000A2H   SFRSYM    DATA     BYTE      P_SW1
      000000CEH   SFRSYM    DATA     BYTE      SPCTL
      000000F8H   SFRSYM    DATA     BYTE      P7
      000000E8H   SFRSYM    DATA     BYTE      P6
      000000C8H   SFRSYM    DATA     BYTE      P5
      000000C0H   SFRSYM    DATA     BYTE      P4
      000000B0H   SFRSYM    DATA     BYTE      P3
      000000A0H   SFRSYM    DATA     BYTE      P2
      00000090H   SFRSYM    DATA     BYTE      P1
      00000080H   SFRSYM    DATA     BYTE      P0
      00FF89E4H   SYMBOL    CODE     ---       icm20602_read_register
      00FF8A51H   SYMBOL    CODE     ---       icm20602_write_register
      00FF8859H   SYMBOL    CODE     ---       icm20602_simspi_wr_byte
      00FF878AH   SYMBOL    CODE     ---       icm20602_self_check
      00FF89B5H   SYMBOL    CODE     ---       icm20602_simspi_r_reg_byte
L251 LINKER/LOCATER V4.66.93.0                                                        06/25/2023  18:36:41  PAGE 66


      00FF8A26H   SYMBOL    CODE     ---       icm20602_simspi_w_reg_byte

      00FF8859H   BLOCK     CODE     ---       LVL=0
      R6          REGSYM    ---      BYTE      byte
      00FF885BH   BLOCK     CODE     NEAR LAB  LVL=1
      R7          REGSYM    ---      BYTE      i
      ---         BLOCKEND  ---      ---       LVL=1
      00FF8859H   LINE      CODE     ---       #270
      00FF885BH   LINE      CODE     ---       #271
      00FF885BH   LINE      CODE     ---       #274
      00FF885DH   LINE      CODE     ---       #276
      00FF8862H   LINE      CODE     ---       #277
      00FF8864H   LINE      CODE     ---       #278
      00FF8866H   LINE      CODE     ---       #279
      00FF8868H   LINE      CODE     ---       #281
      00FF886AH   LINE      CODE     ---       #282
      00FF886CH   LINE      CODE     ---       #283
      00FF8872H   LINE      CODE     ---       #284
      00FF8879H   LINE      CODE     ---       #285
      00FF887BH   LINE      CODE     ---       #286
      ---         BLOCKEND  ---      ---       LVL=0

      00FF8A26H   BLOCK     CODE     ---       LVL=0
      R7          REGSYM    ---      BYTE      cmd
      R15         REGSYM    ---      BYTE      val
      00FF8A26H   LINE      CODE     ---       #294
      00FF8A2AH   LINE      CODE     ---       #297
      00FF8A2AH   LINE      CODE     ---       #298
      00FF8A2DH   LINE      CODE     ---       #299
      00FF8A32H   LINE      CODE     ---       #301
      ---         BLOCKEND  ---      ---       LVL=0

      00FF89B5H   BLOCK     CODE     ---       LVL=0
      R7          REGSYM    ---      BYTE      cmd
      REG=3       REGSYM    ---      ---       val
      00FF89B5H   LINE      CODE     ---       #332
      00FF89BBH   LINE      CODE     ---       #335
      00FF89BEH   LINE      CODE     ---       #336
      00FF89C3H   LINE      CODE     ---       #337
      00FF89CAH   LINE      CODE     ---       #339
      ---         BLOCKEND  ---      ---       LVL=0
      R7          REGSYM    ---      BYTE      cmd
      REG=3       REGSYM    ---      ---       val

      00FF8A51H   BLOCK     CODE     ---       LVL=0
      R11         REGSYM    ---      BYTE      reg
      R7          REGSYM    ---      BYTE      dat
      00FF8A51H   LINE      CODE     ---       #370
      00FF8A51H   LINE      CODE     ---       #372
      00FF8A53H   LINE      CODE     ---       #373
      00FF8A56H   LINE      CODE     ---       #374
      00FF8A58H   LINE      CODE     ---       #375
      ---         BLOCKEND  ---      ---       LVL=0

      00FF89E4H   BLOCK     CODE     ---       LVL=0
      R7          REGSYM    ---      BYTE      reg
      00000684H   SYMBOL    EDATA    BYTE      dat
      00FF89E4H   LINE      CODE     ---       #399
      00FF89E4H   LINE      CODE     ---       #400
      00FF89E4H   LINE      CODE     ---       #402
      00FF89E6H   LINE      CODE     ---       #403
      00FF89EFH   LINE      CODE     ---       #404
      00FF89F1H   LINE      CODE     ---       #405
      00FF89F5H   LINE      CODE     ---       #406
      ---         BLOCKEND  ---      ---       LVL=0
L251 LINKER/LOCATER V4.66.93.0                                                        06/25/2023  18:36:41  PAGE 67


      R3          REGSYM    ---      BYTE      reg
      REG=1       REGSYM    ---      ---       dat
      DR28        REGSYM    ---      DWORD     len

      00FF878AH   BLOCK     CODE     ---       LVL=0
      00FF878CH   BLOCK     CODE     NEAR LAB  LVL=1
      R14         REGSYM    ---      BYTE      dat
      R15         REGSYM    ---      BYTE      return_state
      WR12        REGSYM    ---      WORD      timeout_count
      ---         BLOCKEND  ---      ---       LVL=1
      00FF878AH   LINE      CODE     ---       #434
      00FF878CH   LINE      CODE     ---       #435
      00FF878CH   LINE      CODE     ---       #436
      00FF878EH   LINE      CODE     ---       #437
      00FF8790H   LINE      CODE     ---       #439
      00FF8790H   LINE      CODE     ---       #441
      00FF879AH   LINE      CODE     ---       #443
      00FF879DH   LINE      CODE     ---       #444
      00FF879FH   LINE      CODE     ---       #445
      00FF879FH   LINE      CODE     ---       #446
      00FF87A6H   LINE      CODE     ---       #448
      00FF87ADH   LINE      CODE     ---       #449
      00FF87B2H   LINE      CODE     ---       #450
      00FF87B4H   LINE      CODE     ---       #451
      ---         BLOCKEND  ---      ---       LVL=0
      WR8         REGSYM    ---      INT       acc_value
      DR4         REGSYM    ---      FLOAT     acc_data
      WR8         REGSYM    ---      INT       gyro_value
      DR4         REGSYM    ---      FLOAT     gyro_data

      00FF7CFEH   BLOCK     CODE     ---       LVL=0
      00FF7D00H   BLOCK     CODE     NEAR LAB  LVL=1
      R14         REGSYM    ---      BYTE      val
      R15         REGSYM    ---      BYTE      return_state
      WR12        REGSYM    ---      WORD      timeout_count
      ---         BLOCKEND  ---      ---       LVL=1
      00FF7CFEH   LINE      CODE     ---       #536
      00FF7D00H   LINE      CODE     ---       #537
      00FF7D00H   LINE      CODE     ---       #538
      00FF7D02H   LINE      CODE     ---       #539
      00FF7D04H   LINE      CODE     ---       #541
      00FF7D0BH   LINE      CODE     ---       #550
      00FF7D0BH   LINE      CODE     ---       #552
      00FF7D10H   LINE      CODE     ---       #560
      00FF7D1BH   LINE      CODE     ---       #563
      00FF7D1EH   LINE      CODE     ---       #564
      00FF7D20H   LINE      CODE     ---       #565
      00FF7D20H   LINE      CODE     ---       #567
      00FF7D28H   LINE      CODE     ---       #568
      00FF7D2FH   LINE      CODE     ---       #570
      00FF7D2FH   LINE      CODE     ---       #572
      00FF7D36H   LINE      CODE     ---       #573
      00FF7D40H   LINE      CODE     ---       #580
      00FF7D4BH   LINE      CODE     ---       #583
      00FF7D4EH   LINE      CODE     ---       #584
      00FF7D50H   LINE      CODE     ---       #585
      00FF7D55H   LINE      CODE     ---       #587
      00FF7D5AH   LINE      CODE     ---       #589
      00FF7D5AH   LINE      CODE     ---       #590
      00FF7D5AH   LINE      CODE     ---       #592
      00FF7D62H   LINE      CODE     ---       #593
      00FF7D69H   LINE      CODE     ---       #594
      00FF7D71H   LINE      CODE     ---       #595
      00FF7D79H   LINE      CODE     ---       #597
      00FF7D81H   LINE      CODE     ---       #604
L251 LINKER/LOCATER V4.66.93.0                                                        06/25/2023  18:36:41  PAGE 68


      00FF7D89H   LINE      CODE     ---       #611
      00FF7D91H   LINE      CODE     ---       #614
      00FF7D91H   LINE      CODE     ---       #615
      00FF7D93H   LINE      CODE     ---       #616
      ---         BLOCKEND  ---      ---       LVL=0

      ---         MODULE    ---      ---       SEEKFREE_IMU660RA
      000007D1H   PUBLIC    EDATA    INT       imu660ra_acc_x
      000007D3H   PUBLIC    EDATA    INT       imu660ra_acc_y
      000007D5H   PUBLIC    EDATA    INT       imu660ra_acc_z
      000007D7H   PUBLIC    EDATA    INT       imu660ra_gyro_x
      000007D9H   PUBLIC    EDATA    INT       imu660ra_gyro_y
      000007DBH   PUBLIC    EDATA    INT       imu660ra_gyro_z
      000000D0H   SFRSYM    DATA     BYTE      PSW
      0000009DH   SFRSYM    DATA     BYTE      IRCBAND
      00000097H   SFRSYM    DATA     BYTE      AUXR2
      000000EFH   SFRSYM    DATA     BYTE      AUXINTIF
      000000FDH   SFRSYM    DATA     BYTE      S4CON
      000000ACH   SFRSYM    DATA     BYTE      S3CON
      0000009AH   SFRSYM    DATA     BYTE      S2CON
      000000B7H   SFRSYM    DATA     BYTE      IPH
      000000CDH   SFRSYM    DATA     BYTE      SPSTAT
      000000DDH   SFRSYM    DATA     BYTE      T4T3M
      000000C1H   SFRSYM    DATA     BYTE      WDT_CONTR
      000000DFH   SFRSYM    DATA     BYTE      IP3
      000000F4H   SFRSYM    DATA     BYTE      USBCON
      000000B5H   SFRSYM    DATA     BYTE      IP2
      000000FFH   SFRSYM    DATA     BYTE      RSTCFG
      000000F9H   SFRSYM    DATA     BYTE      LINICR
      0000008EH   SFRSYM    DATA     BYTE      AUXR
      000000AFH   SFRSYM    DATA     BYTE      IE2
      000000C0H.3 SFRSYM    DATA     BIT       P43
      000000C0H.2 SFRSYM    DATA     BIT       P42
      00000088H   SFRSYM    DATA     BYTE      TCON
      000000C0H.1 SFRSYM    DATA     BIT       P41
      00000098H   SFRSYM    DATA     BYTE      SCON
      000000C0H.0 SFRSYM    DATA     BIT       P40
      000000F1H   SFRSYM    DATA     BYTE      CANICR
      00000087H   SFRSYM    DATA     BYTE      PCON
      000000BCH   SFRSYM    DATA     BYTE      ADC_CONTR
      000000E7H   SFRSYM    DATA     BYTE      CMPCR2
      000000E6H   SFRSYM    DATA     BYTE      CMPCR1
      000000B8H   SFRSYM    DATA     BYTE      IP
      0000008FH   SFRSYM    DATA     BYTE      INTCLKO
      000000EEH   SFRSYM    DATA     BYTE      IP3H
      000000B6H   SFRSYM    DATA     BYTE      IP2H
      000000A8H   SFRSYM    DATA     BYTE      IE
      000000BBH   SFRSYM    DATA     BYTE      P_SW3
      000000BAH   SFRSYM    DATA     BYTE      P_SW2
      000000A2H   SFRSYM    DATA     BYTE      P_SW1
      000000CEH   SFRSYM    DATA     BYTE      SPCTL
      000000F8H   SFRSYM    DATA     BYTE      P7
      000000E8H   SFRSYM    DATA     BYTE      P6
      000000C8H   SFRSYM    DATA     BYTE      P5
      000000C0H   SFRSYM    DATA     BYTE      P4
      000000B0H   SFRSYM    DATA     BYTE      P3
      000000A0H   SFRSYM    DATA     BYTE      P2
      00000090H   SFRSYM    DATA     BYTE      P1
      00000080H   SFRSYM    DATA     BYTE      P0
      R6          REGSYM    ---      BYTE      byte
      R7          REGSYM    ---      BYTE      i
      R7          REGSYM    ---      BYTE      cmd
      R15         REGSYM    ---      BYTE      val
      R11         REGSYM    ---      BYTE      cmd
      DR12        REGSYM    ---      DWORD     len
L251 LINKER/LOCATER V4.66.93.0                                                        06/25/2023  18:36:41  PAGE 69


      R7          REGSYM    ---      BYTE      cmd
      REG=3       REGSYM    ---      ---       val
      R11         REGSYM    ---      BYTE      reg
      R7          REGSYM    ---      BYTE      dat
      R3          REGSYM    ---      BYTE      reg
      REG=1       REGSYM    ---      ---       dat
      DR28        REGSYM    ---      DWORD     len
      R7          REGSYM    ---      BYTE      reg
      R3          REGSYM    ---      BYTE      reg
      REG=1       REGSYM    ---      ---       dat
      DR28        REGSYM    ---      DWORD     len
      R14         REGSYM    ---      BYTE      dat
      R15         REGSYM    ---      BYTE      return_state
      WR12        REGSYM    ---      WORD      timeout_count
      WR8         REGSYM    ---      INT       acc_value
      DR4         REGSYM    ---      FLOAT     acc_dat
      WR8         REGSYM    ---      INT       gyro_value
      DR4         REGSYM    ---      FLOAT     gyro_dat
      R15         REGSYM    ---      BYTE      return_state

      ---         MODULE    ---      ---       SEEKFREE_IMU963RA
      00000008H   PUBLIC    EDATA    INT       imu963ra_acc_x
      0000000AH   PUBLIC    EDATA    INT       imu963ra_acc_y
      0000000CH   PUBLIC    EDATA    INT       imu963ra_acc_z
      0000000EH   PUBLIC    EDATA    INT       imu963ra_mag_x
      00000010H   PUBLIC    EDATA    INT       imu963ra_mag_y
      00000012H   PUBLIC    EDATA    INT       imu963ra_mag_z
      00000014H   PUBLIC    EDATA    INT       imu963ra_gyro_x
      00000016H   PUBLIC    EDATA    INT       imu963ra_gyro_y
      00000018H   PUBLIC    EDATA    INT       imu963ra_gyro_z
      000000D0H   SFRSYM    DATA     BYTE      PSW
      0000009DH   SFRSYM    DATA     BYTE      IRCBAND
      00000097H   SFRSYM    DATA     BYTE      AUXR2
      000000EFH   SFRSYM    DATA     BYTE      AUXINTIF
      000000FDH   SFRSYM    DATA     BYTE      S4CON
      000000ACH   SFRSYM    DATA     BYTE      S3CON
      0000009AH   SFRSYM    DATA     BYTE      S2CON
      000000B7H   SFRSYM    DATA     BYTE      IPH
      000000CDH   SFRSYM    DATA     BYTE      SPSTAT
      000000DDH   SFRSYM    DATA     BYTE      T4T3M
      000000C1H   SFRSYM    DATA     BYTE      WDT_CONTR
      000000DFH   SFRSYM    DATA     BYTE      IP3
      000000F4H   SFRSYM    DATA     BYTE      USBCON
      000000B5H   SFRSYM    DATA     BYTE      IP2
      000000FFH   SFRSYM    DATA     BYTE      RSTCFG
      000000F9H   SFRSYM    DATA     BYTE      LINICR
      0000008EH   SFRSYM    DATA     BYTE      AUXR
      000000AFH   SFRSYM    DATA     BYTE      IE2
      000000C0H.3 SFRSYM    DATA     BIT       P43
      000000C0H.2 SFRSYM    DATA     BIT       P42
      00000088H   SFRSYM    DATA     BYTE      TCON
      000000C0H.1 SFRSYM    DATA     BIT       P41
      00000098H   SFRSYM    DATA     BYTE      SCON
      000000C0H.0 SFRSYM    DATA     BIT       P40
      000000F1H   SFRSYM    DATA     BYTE      CANICR
      00000087H   SFRSYM    DATA     BYTE      PCON
      000000BCH   SFRSYM    DATA     BYTE      ADC_CONTR
      000000E7H   SFRSYM    DATA     BYTE      CMPCR2
      000000E6H   SFRSYM    DATA     BYTE      CMPCR1
      000000B8H   SFRSYM    DATA     BYTE      IP
      0000008FH   SFRSYM    DATA     BYTE      INTCLKO
      000000EEH   SFRSYM    DATA     BYTE      IP3H
      000000B6H   SFRSYM    DATA     BYTE      IP2H
      000000A8H   SFRSYM    DATA     BYTE      IE
      000000BBH   SFRSYM    DATA     BYTE      P_SW3
L251 LINKER/LOCATER V4.66.93.0                                                        06/25/2023  18:36:41  PAGE 70


      000000BAH   SFRSYM    DATA     BYTE      P_SW2
      000000A2H   SFRSYM    DATA     BYTE      P_SW1
      000000CEH   SFRSYM    DATA     BYTE      SPCTL
      000000F8H   SFRSYM    DATA     BYTE      P7
      000000E8H   SFRSYM    DATA     BYTE      P6
      000000C8H   SFRSYM    DATA     BYTE      P5
      000000C0H   SFRSYM    DATA     BYTE      P4
      000000B0H   SFRSYM    DATA     BYTE      P3
      000000A0H   SFRSYM    DATA     BYTE      P2
      00000090H   SFRSYM    DATA     BYTE      P1
      00000080H   SFRSYM    DATA     BYTE      P0
      R6          REGSYM    ---      BYTE      byte
      R7          REGSYM    ---      BYTE      i
      R7          REGSYM    ---      BYTE      cmd
      R15         REGSYM    ---      BYTE      val
      R7          REGSYM    ---      BYTE      cmd
      REG=3       REGSYM    ---      ---       val
      R7          REGSYM    ---      BYTE      cmd
      REG=3       REGSYM    ---      ---       val
      R11         REGSYM    ---      BYTE      reg
      R7          REGSYM    ---      BYTE      dat
      R10         REGSYM    ---      BYTE      reg
      R3          REGSYM    ---      BYTE      reg
      REG=1       REGSYM    ---      ---       dat
      DR28        REGSYM    ---      DWORD     len
      R15         REGSYM    ---      BYTE      addr
      R13         REGSYM    ---      BYTE      reg
      R14         REGSYM    ---      BYTE      dat
      R12         REGSYM    ---      BYTE      return_state
      R10         REGSYM    ---      BYTE      addr
      R15         REGSYM    ---      BYTE      reg
      WR12        REGSYM    ---      WORD      timeout_count
      R10         REGSYM    ---      BYTE      addr
      R15         REGSYM    ---      BYTE      reg
      R15         REGSYM    ---      BYTE      return_state
      R14         REGSYM    ---      BYTE      dat
      WR12        REGSYM    ---      WORD      timeout_count
      R15         REGSYM    ---      BYTE      return_state
      R14         REGSYM    ---      BYTE      dat
      WR12        REGSYM    ---      WORD      timeout_count
      R11         REGSYM    ---      BYTE      temp_status
      WR8         REGSYM    ---      INT       mag_value
      DR4         REGSYM    ---      FLOAT     mag_dat
      R15         REGSYM    ---      BYTE      return_state

      ---         MODULE    ---      ---       SEEKFREE_MPU6050
      000007DDH   PUBLIC    EDATA    INT       mpu6050_acc_x
      000007DFH   PUBLIC    EDATA    INT       mpu6050_acc_y
      000007E1H   PUBLIC    EDATA    INT       mpu6050_acc_z
      000007E3H   PUBLIC    EDATA    INT       mpu6050_gyro_x
      000007E5H   PUBLIC    EDATA    INT       mpu6050_gyro_y
      000007E7H   PUBLIC    EDATA    INT       mpu6050_gyro_z
      000000D0H   SFRSYM    DATA     BYTE      PSW
      0000009DH   SFRSYM    DATA     BYTE      IRCBAND
      00000097H   SFRSYM    DATA     BYTE      AUXR2
      000000EFH   SFRSYM    DATA     BYTE      AUXINTIF
      000000FDH   SFRSYM    DATA     BYTE      S4CON
      000000ACH   SFRSYM    DATA     BYTE      S3CON
      0000009AH   SFRSYM    DATA     BYTE      S2CON
      000000B7H   SFRSYM    DATA     BYTE      IPH
      000000CDH   SFRSYM    DATA     BYTE      SPSTAT
      000000DDH   SFRSYM    DATA     BYTE      T4T3M
      000000C1H   SFRSYM    DATA     BYTE      WDT_CONTR
      000000DFH   SFRSYM    DATA     BYTE      IP3
      000000F4H   SFRSYM    DATA     BYTE      USBCON
L251 LINKER/LOCATER V4.66.93.0                                                        06/25/2023  18:36:41  PAGE 71


      000000B5H   SFRSYM    DATA     BYTE      IP2
      000000FFH   SFRSYM    DATA     BYTE      RSTCFG
      000000F9H   SFRSYM    DATA     BYTE      LINICR
      0000008EH   SFRSYM    DATA     BYTE      AUXR
      000000AFH   SFRSYM    DATA     BYTE      IE2
      00000088H   SFRSYM    DATA     BYTE      TCON
      000000C0H.1 SFRSYM    DATA     BIT       P41
      00000098H   SFRSYM    DATA     BYTE      SCON
      000000C0H.0 SFRSYM    DATA     BIT       P40
      000000F1H   SFRSYM    DATA     BYTE      CANICR
      00000087H   SFRSYM    DATA     BYTE      PCON
      000000BCH   SFRSYM    DATA     BYTE      ADC_CONTR
      000000E7H   SFRSYM    DATA     BYTE      CMPCR2
      000000E6H   SFRSYM    DATA     BYTE      CMPCR1
      000000B8H   SFRSYM    DATA     BYTE      IP
      0000008FH   SFRSYM    DATA     BYTE      INTCLKO
      000000EEH   SFRSYM    DATA     BYTE      IP3H
      000000B6H   SFRSYM    DATA     BYTE      IP2H
      000000A8H   SFRSYM    DATA     BYTE      IE
      000000BBH   SFRSYM    DATA     BYTE      P_SW3
      000000BAH   SFRSYM    DATA     BYTE      P_SW2
      000000A2H   SFRSYM    DATA     BYTE      P_SW1
      000000CEH   SFRSYM    DATA     BYTE      SPCTL
      000000F8H   SFRSYM    DATA     BYTE      P7
      000000E8H   SFRSYM    DATA     BYTE      P6
      000000C8H   SFRSYM    DATA     BYTE      P5
      000000C0H   SFRSYM    DATA     BYTE      P4
      000000B0H   SFRSYM    DATA     BYTE      P3
      000000A0H   SFRSYM    DATA     BYTE      P2
      00000090H   SFRSYM    DATA     BYTE      P1
      00000080H   SFRSYM    DATA     BYTE      P0
      WR6         REGSYM    ---      WORD      j
      R15         REGSYM    ---      BYTE      ack_dat
      R15         REGSYM    ---      BYTE      c
      R14         REGSYM    ---      BYTE      i
      R15         REGSYM    ---      BYTE      ack_x
      R13         REGSYM    ---      BYTE      i
      R14         REGSYM    ---      BYTE      c
      R13         REGSYM    ---      BYTE      dev_add
      R14         REGSYM    ---      BYTE      reg
      R15         REGSYM    ---      BYTE      dat
      R15         REGSYM    ---      BYTE      dev_add
      R14         REGSYM    ---      BYTE      reg
      R15         REGSYM    ---      BYTE      dat
      REG=3       REGSYM    ---      ---       dat_add

      ---         MODULE    ---      ---       SEEKFREE_PRINTF
      000000D0H   SFRSYM    DATA     BYTE      PSW
      0000009DH   SFRSYM    DATA     BYTE      IRCBAND
      00000097H   SFRSYM    DATA     BYTE      AUXR2
      000000EFH   SFRSYM    DATA     BYTE      AUXINTIF
      000000FDH   SFRSYM    DATA     BYTE      S4CON
      000000ACH   SFRSYM    DATA     BYTE      S3CON
      0000009AH   SFRSYM    DATA     BYTE      S2CON
      000000B7H   SFRSYM    DATA     BYTE      IPH
      000000CDH   SFRSYM    DATA     BYTE      SPSTAT
      000000DDH   SFRSYM    DATA     BYTE      T4T3M
      000000C1H   SFRSYM    DATA     BYTE      WDT_CONTR
      000000DFH   SFRSYM    DATA     BYTE      IP3
      000000F4H   SFRSYM    DATA     BYTE      USBCON
      000000B5H   SFRSYM    DATA     BYTE      IP2
      000000FFH   SFRSYM    DATA     BYTE      RSTCFG
      000000F9H   SFRSYM    DATA     BYTE      LINICR
      0000008EH   SFRSYM    DATA     BYTE      AUXR
      000000AFH   SFRSYM    DATA     BYTE      IE2
L251 LINKER/LOCATER V4.66.93.0                                                        06/25/2023  18:36:41  PAGE 72


      00000088H   SFRSYM    DATA     BYTE      TCON
      00000098H   SFRSYM    DATA     BYTE      SCON
      000000F1H   SFRSYM    DATA     BYTE      CANICR
      00000087H   SFRSYM    DATA     BYTE      PCON
      000000BCH   SFRSYM    DATA     BYTE      ADC_CONTR
      000000E7H   SFRSYM    DATA     BYTE      CMPCR2
      000000E6H   SFRSYM    DATA     BYTE      CMPCR1
      000000B8H   SFRSYM    DATA     BYTE      IP
      0000008FH   SFRSYM    DATA     BYTE      INTCLKO
      000000EEH   SFRSYM    DATA     BYTE      IP3H
      000000B6H   SFRSYM    DATA     BYTE      IP2H
      000000A8H   SFRSYM    DATA     BYTE      IE
      000000BBH   SFRSYM    DATA     BYTE      P_SW3
      000000BAH   SFRSYM    DATA     BYTE      P_SW2
      000000A2H   SFRSYM    DATA     BYTE      P_SW1
      000000CEH   SFRSYM    DATA     BYTE      SPCTL
      000000F8H   SFRSYM    DATA     BYTE      P7
      000000E8H   SFRSYM    DATA     BYTE      P6
      000000C8H   SFRSYM    DATA     BYTE      P5
      000000C0H   SFRSYM    DATA     BYTE      P4
      000000B0H   SFRSYM    DATA     BYTE      P3
      000000A0H   SFRSYM    DATA     BYTE      P2
      00000090H   SFRSYM    DATA     BYTE      P1
      00000080H   SFRSYM    DATA     BYTE      P0
      DR24        REGSYM    ---      DWORD     dat
      REG=7       REGSYM    ---      ---       p
      R10         REGSYM    ---      BYTE      neg_type
      DR20        REGSYM    ---      LONG      neg_dat
      DR24        REGSYM    ---      DWORD     pos_dat
      R14         REGSYM    ---      BYTE      temp_data
      R15         REGSYM    ---      BYTE      valid_num
      REG=7       REGSYM    ---      ---       d_buff
      DR24        REGSYM    ---      DWORD     len
      DR4         REGSYM    ---      DWORD     i
      R3          REGSYM    ---      CHAR      temp_data
      REG=3       REGSYM    ---      ---       buff

      ---         MODULE    ---      ---       SEEKFREE_TSL1401
      000004A1H   PUBLIC    EDATA    BYTE      tsl1401_finish_flag
      000004A2H   PUBLIC    EDATA    ---       ccd_data
      000000D0H   SFRSYM    DATA     BYTE      PSW
      0000009DH   SFRSYM    DATA     BYTE      IRCBAND
      00000097H   SFRSYM    DATA     BYTE      AUXR2
      000000EFH   SFRSYM    DATA     BYTE      AUXINTIF
      000000FDH   SFRSYM    DATA     BYTE      S4CON
      000000ACH   SFRSYM    DATA     BYTE      S3CON
      0000009AH   SFRSYM    DATA     BYTE      S2CON
      000000B7H   SFRSYM    DATA     BYTE      IPH
      000000CDH   SFRSYM    DATA     BYTE      SPSTAT
      000000DDH   SFRSYM    DATA     BYTE      T4T3M
      000000C1H   SFRSYM    DATA     BYTE      WDT_CONTR
      000000DFH   SFRSYM    DATA     BYTE      IP3
      000000F4H   SFRSYM    DATA     BYTE      USBCON
      000000B5H   SFRSYM    DATA     BYTE      IP2
      000000FFH   SFRSYM    DATA     BYTE      RSTCFG
      000000F9H   SFRSYM    DATA     BYTE      LINICR
      0000008EH   SFRSYM    DATA     BYTE      AUXR
      000000AFH   SFRSYM    DATA     BYTE      IE2
      000000B0H.3 SFRSYM    DATA     BIT       P33
      00000088H   SFRSYM    DATA     BYTE      TCON
      000000B0H.2 SFRSYM    DATA     BIT       P32
      00000098H   SFRSYM    DATA     BYTE      SCON
      000000F1H   SFRSYM    DATA     BYTE      CANICR
      00000087H   SFRSYM    DATA     BYTE      PCON
      000000BCH   SFRSYM    DATA     BYTE      ADC_CONTR
L251 LINKER/LOCATER V4.66.93.0                                                        06/25/2023  18:36:41  PAGE 73


      000000E7H   SFRSYM    DATA     BYTE      CMPCR2
      000000E6H   SFRSYM    DATA     BYTE      CMPCR1
      000000B8H   SFRSYM    DATA     BYTE      IP
      0000008FH   SFRSYM    DATA     BYTE      INTCLKO
      000000EEH   SFRSYM    DATA     BYTE      IP3H
      000000B6H   SFRSYM    DATA     BYTE      IP2H
      000000A8H   SFRSYM    DATA     BYTE      IE
      000000BBH   SFRSYM    DATA     BYTE      P_SW3
      000000BAH   SFRSYM    DATA     BYTE      P_SW2
      000000A2H   SFRSYM    DATA     BYTE      P_SW1
      000000CEH   SFRSYM    DATA     BYTE      SPCTL
      000000F8H   SFRSYM    DATA     BYTE      P7
      000000E8H   SFRSYM    DATA     BYTE      P6
      000000C8H   SFRSYM    DATA     BYTE      P5
      000000C0H   SFRSYM    DATA     BYTE      P4
      000000B0H   SFRSYM    DATA     BYTE      P3
      000000A0H   SFRSYM    DATA     BYTE      P2
      00000090H   SFRSYM    DATA     BYTE      P1
      00000080H   SFRSYM    DATA     BYTE      P0
      REG=3       REGSYM    ---      ---       dat
      R15         REGSYM    ---      BYTE      i

      ---         MODULE    ---      ---       SEEKFREE_VIRSCO
      000007E9H   PUBLIC    EDATA    ---       virtual_scope_data
      000000D0H   SFRSYM    DATA     BYTE      PSW
      0000009DH   SFRSYM    DATA     BYTE      IRCBAND
      00000097H   SFRSYM    DATA     BYTE      AUXR2
      000000EFH   SFRSYM    DATA     BYTE      AUXINTIF
      000000FDH   SFRSYM    DATA     BYTE      S4CON
      000000ACH   SFRSYM    DATA     BYTE      S3CON
      0000009AH   SFRSYM    DATA     BYTE      S2CON
      000000B7H   SFRSYM    DATA     BYTE      IPH
      000000CDH   SFRSYM    DATA     BYTE      SPSTAT
      000000DDH   SFRSYM    DATA     BYTE      T4T3M
      000000C1H   SFRSYM    DATA     BYTE      WDT_CONTR
      000000DFH   SFRSYM    DATA     BYTE      IP3
      000000F4H   SFRSYM    DATA     BYTE      USBCON
      000000B5H   SFRSYM    DATA     BYTE      IP2
      000000FFH   SFRSYM    DATA     BYTE      RSTCFG
      000000F9H   SFRSYM    DATA     BYTE      LINICR
      0000008EH   SFRSYM    DATA     BYTE      AUXR
      000000AFH   SFRSYM    DATA     BYTE      IE2
      00000088H   SFRSYM    DATA     BYTE      TCON
      00000098H   SFRSYM    DATA     BYTE      SCON
      000000F1H   SFRSYM    DATA     BYTE      CANICR
      00000087H   SFRSYM    DATA     BYTE      PCON
      000000BCH   SFRSYM    DATA     BYTE      ADC_CONTR
      000000E7H   SFRSYM    DATA     BYTE      CMPCR2
      000000E6H   SFRSYM    DATA     BYTE      CMPCR1
      000000B8H   SFRSYM    DATA     BYTE      IP
      0000008FH   SFRSYM    DATA     BYTE      INTCLKO
      000000EEH   SFRSYM    DATA     BYTE      IP3H
      000000B6H   SFRSYM    DATA     BYTE      IP2H
      000000A8H   SFRSYM    DATA     BYTE      IE
      000000BBH   SFRSYM    DATA     BYTE      P_SW3
      000000BAH   SFRSYM    DATA     BYTE      P_SW2
      000000A2H   SFRSYM    DATA     BYTE      P_SW1
      000000CEH   SFRSYM    DATA     BYTE      SPCTL
      000000F8H   SFRSYM    DATA     BYTE      P7
      000000E8H   SFRSYM    DATA     BYTE      P6
      000000C8H   SFRSYM    DATA     BYTE      P5
      000000C0H   SFRSYM    DATA     BYTE      P4
      000000B0H   SFRSYM    DATA     BYTE      P3
      000000A0H   SFRSYM    DATA     BYTE      P2
      00000090H   SFRSYM    DATA     BYTE      P1
L251 LINKER/LOCATER V4.66.93.0                                                        06/25/2023  18:36:41  PAGE 74


      00000080H   SFRSYM    DATA     BYTE      P0
      REG=7       REGSYM    ---      ---       Buf
      R10         REGSYM    ---      BYTE      CRC_CNT
      WR6         REGSYM    ---      WORD      CRC_Temp
      R5          REGSYM    ---      BYTE      i
      R4          REGSYM    ---      BYTE      j
      WR0         REGSYM    ---      INT       data1
      WR30        REGSYM    ---      INT       data2
      WR8         REGSYM    ---      INT       data3
      WR10        REGSYM    ---      INT       data4
      WR6         REGSYM    ---      WORD      CRC16

      ---         MODULE    ---      ---       SEEKFREE_WIRELESS
      00FF8983H   PUBLIC    CODE     ---       wireless_uart_callback
      000000D0H   SFRSYM    DATA     BYTE      PSW
      0000009DH   SFRSYM    DATA     BYTE      IRCBAND
      00000097H   SFRSYM    DATA     BYTE      AUXR2
      000000EFH   SFRSYM    DATA     BYTE      AUXINTIF
      000000FDH   SFRSYM    DATA     BYTE      S4CON
      000000ACH   SFRSYM    DATA     BYTE      S3CON
      0000009AH   SFRSYM    DATA     BYTE      S2CON
      000000FEH   SFRSYM    DATA     BYTE      S4BUF
      000000B7H   SFRSYM    DATA     BYTE      IPH
      000000CDH   SFRSYM    DATA     BYTE      SPSTAT
      000000DDH   SFRSYM    DATA     BYTE      T4T3M
      000000C1H   SFRSYM    DATA     BYTE      WDT_CONTR
      000000DFH   SFRSYM    DATA     BYTE      IP3
      000000F4H   SFRSYM    DATA     BYTE      USBCON
      000000B5H   SFRSYM    DATA     BYTE      IP2
      000000FFH   SFRSYM    DATA     BYTE      RSTCFG
      000000F9H   SFRSYM    DATA     BYTE      LINICR
      0000008EH   SFRSYM    DATA     BYTE      AUXR
      000000AFH   SFRSYM    DATA     BYTE      IE2
      00000080H.7 SFRSYM    DATA     BIT       P07
      00000088H   SFRSYM    DATA     BYTE      TCON
      00000098H   SFRSYM    DATA     BYTE      SCON
      000000F1H   SFRSYM    DATA     BYTE      CANICR
      00000087H   SFRSYM    DATA     BYTE      PCON
      000000BCH   SFRSYM    DATA     BYTE      ADC_CONTR
      000000E7H   SFRSYM    DATA     BYTE      CMPCR2
      000000E6H   SFRSYM    DATA     BYTE      CMPCR1
      000000B8H   SFRSYM    DATA     BYTE      IP
      0000008FH   SFRSYM    DATA     BYTE      INTCLKO
      000000EEH   SFRSYM    DATA     BYTE      IP3H
      000000B6H   SFRSYM    DATA     BYTE      IP2H
      000000A8H   SFRSYM    DATA     BYTE      IE
      000000BBH   SFRSYM    DATA     BYTE      P_SW3
      000000BAH   SFRSYM    DATA     BYTE      P_SW2
      000000A2H   SFRSYM    DATA     BYTE      P_SW1
      000000CEH   SFRSYM    DATA     BYTE      SPCTL
      000000F8H   SFRSYM    DATA     BYTE      P7
      000000E8H   SFRSYM    DATA     BYTE      P6
      000000C8H   SFRSYM    DATA     BYTE      P5
      000000C0H   SFRSYM    DATA     BYTE      P4
      000000B0H   SFRSYM    DATA     BYTE      P3
      000000A0H   SFRSYM    DATA     BYTE      P2
      00000090H   SFRSYM    DATA     BYTE      P1
      00000080H   SFRSYM    DATA     BYTE      P0
      0000071BH   SYMBOL    EDATA    BYTE      wireless_uart_data
      0000071CH   SYMBOL    EDATA    ---       wireless_uart_fifo
      00000730H   SYMBOL    EDATA    ---       wireless_uart_buffer

      00FF8983H   BLOCK     CODE     ---       LVL=0
      00FF8983H   LINE      CODE     ---       #48
      00FF8983H   LINE      CODE     ---       #51
L251 LINKER/LOCATER V4.66.93.0                                                        06/25/2023  18:36:41  PAGE 75


      00FF8989H   LINE      CODE     ---       #52
      ---         BLOCKEND  ---      ---       LVL=0
      REG=3       REGSYM    ---      ---       buff
      REG=7       REGSYM    ---      ---       buff
      DR8         REGSYM    ---      DWORD     len

      ---         MODULE    ---      ---       SEEKFREE_WIRELESS_CH573
      00FF899CH   PUBLIC    CODE     ---       wireless_ch573_callback
      000000D0H   SFRSYM    DATA     BYTE      PSW
      0000009DH   SFRSYM    DATA     BYTE      IRCBAND
      00000097H   SFRSYM    DATA     BYTE      AUXR2
      000000EFH   SFRSYM    DATA     BYTE      AUXINTIF
      000000FDH   SFRSYM    DATA     BYTE      S4CON
      000000ACH   SFRSYM    DATA     BYTE      S3CON
      0000009AH   SFRSYM    DATA     BYTE      S2CON
      000000FEH   SFRSYM    DATA     BYTE      S4BUF
      000000B7H   SFRSYM    DATA     BYTE      IPH
      000000CDH   SFRSYM    DATA     BYTE      SPSTAT
      000000DDH   SFRSYM    DATA     BYTE      T4T3M
      000000C1H   SFRSYM    DATA     BYTE      WDT_CONTR
      000000DFH   SFRSYM    DATA     BYTE      IP3
      000000F4H   SFRSYM    DATA     BYTE      USBCON
      000000B5H   SFRSYM    DATA     BYTE      IP2
      000000FFH   SFRSYM    DATA     BYTE      RSTCFG
      000000F9H   SFRSYM    DATA     BYTE      LINICR
      0000008EH   SFRSYM    DATA     BYTE      AUXR
      000000AFH   SFRSYM    DATA     BYTE      IE2
      00000080H.7 SFRSYM    DATA     BIT       P07
      00000088H   SFRSYM    DATA     BYTE      TCON
      00000098H   SFRSYM    DATA     BYTE      SCON
      000000F1H   SFRSYM    DATA     BYTE      CANICR
      00000087H   SFRSYM    DATA     BYTE      PCON
      000000BCH   SFRSYM    DATA     BYTE      ADC_CONTR
      000000E7H   SFRSYM    DATA     BYTE      CMPCR2
      000000E6H   SFRSYM    DATA     BYTE      CMPCR1
      000000B8H   SFRSYM    DATA     BYTE      IP
      0000008FH   SFRSYM    DATA     BYTE      INTCLKO
      000000EEH   SFRSYM    DATA     BYTE      IP3H
      000000B6H   SFRSYM    DATA     BYTE      IP2H
      000000A8H   SFRSYM    DATA     BYTE      IE
      000000BBH   SFRSYM    DATA     BYTE      P_SW3
      000000BAH   SFRSYM    DATA     BYTE      P_SW2
      000000A2H   SFRSYM    DATA     BYTE      P_SW1
      000000CEH   SFRSYM    DATA     BYTE      SPCTL
      000000F8H   SFRSYM    DATA     BYTE      P7
      000000E8H   SFRSYM    DATA     BYTE      P6
      000000C8H   SFRSYM    DATA     BYTE      P5
      000000C0H   SFRSYM    DATA     BYTE      P4
      000000B0H   SFRSYM    DATA     BYTE      P3
      000000A0H   SFRSYM    DATA     BYTE      P2
      00000090H   SFRSYM    DATA     BYTE      P1
      00000080H   SFRSYM    DATA     BYTE      P0
      00000770H   SYMBOL    EDATA    ---       wireless_ch573_buffer
      000007B0H   SYMBOL    EDATA    BYTE      wireless_ch573_data
      000007B1H   SYMBOL    EDATA    ---       wireless_ch573_fifo

      00FF899CH   BLOCK     CODE     ---       LVL=0
      00FF899CH   LINE      CODE     ---       #39
      00FF899CH   LINE      CODE     ---       #42
      00FF89A2H   LINE      CODE     ---       #43
      ---         BLOCKEND  ---      ---       LVL=0
      REG=3       REGSYM    ---      ---       buff
      REG=7       REGSYM    ---      ---       buff
      DR8         REGSYM    ---      DWORD     len

L251 LINKER/LOCATER V4.66.93.0                                                        06/25/2023  18:36:41  PAGE 76


      ---         MODULE    ---      ---       SEEKFREE_IPS114_SPI
      000000D0H   SFRSYM    DATA     BYTE      PSW
      0000009DH   SFRSYM    DATA     BYTE      IRCBAND
      00000097H   SFRSYM    DATA     BYTE      AUXR2
      000000EFH   SFRSYM    DATA     BYTE      AUXINTIF
      000000FDH   SFRSYM    DATA     BYTE      S4CON
      000000ACH   SFRSYM    DATA     BYTE      S3CON
      0000009AH   SFRSYM    DATA     BYTE      S2CON
      000000B7H   SFRSYM    DATA     BYTE      IPH
      000000CDH   SFRSYM    DATA     BYTE      SPSTAT
      000000DDH   SFRSYM    DATA     BYTE      T4T3M
      000000C1H   SFRSYM    DATA     BYTE      WDT_CONTR
      000000DFH   SFRSYM    DATA     BYTE      IP3
      000000F4H   SFRSYM    DATA     BYTE      USBCON
      000000B5H   SFRSYM    DATA     BYTE      IP2
      000000FFH   SFRSYM    DATA     BYTE      RSTCFG
      000000F9H   SFRSYM    DATA     BYTE      LINICR
      0000008EH   SFRSYM    DATA     BYTE      AUXR
      000000AFH   SFRSYM    DATA     BYTE      IE2
      000000A0H.7 SFRSYM    DATA     BIT       P27
      000000A0H.5 SFRSYM    DATA     BIT       P25
      00000088H   SFRSYM    DATA     BYTE      TCON
      000000A0H.3 SFRSYM    DATA     BIT       P23
      00000098H   SFRSYM    DATA     BYTE      SCON
      000000A0H.2 SFRSYM    DATA     BIT       P22
      000000A0H.1 SFRSYM    DATA     BIT       P21
      000000A0H.0 SFRSYM    DATA     BIT       P20
      000000F1H   SFRSYM    DATA     BYTE      CANICR
      00000087H   SFRSYM    DATA     BYTE      PCON
      000000BCH   SFRSYM    DATA     BYTE      ADC_CONTR
      000000E7H   SFRSYM    DATA     BYTE      CMPCR2
      000000E6H   SFRSYM    DATA     BYTE      CMPCR1
      000000B8H   SFRSYM    DATA     BYTE      IP
      0000008FH   SFRSYM    DATA     BYTE      INTCLKO
      000000EEH   SFRSYM    DATA     BYTE      IP3H
      000000B6H   SFRSYM    DATA     BYTE      IP2H
      000000A8H   SFRSYM    DATA     BYTE      IE
      000000BBH   SFRSYM    DATA     BYTE      P_SW3
      000000BAH   SFRSYM    DATA     BYTE      P_SW2
      000000A2H   SFRSYM    DATA     BYTE      P_SW1
      000000CEH   SFRSYM    DATA     BYTE      SPCTL
      000000F8H   SFRSYM    DATA     BYTE      P7
      000000E8H   SFRSYM    DATA     BYTE      P6
      000000C8H   SFRSYM    DATA     BYTE      P5
      000000C0H   SFRSYM    DATA     BYTE      P4
      000000B0H   SFRSYM    DATA     BYTE      P3
      000000A0H   SFRSYM    DATA     BYTE      P2
      00000090H   SFRSYM    DATA     BYTE      P1
      00000080H   SFRSYM    DATA     BYTE      P0
      R7          REGSYM    ---      BYTE      dat
      R6          REGSYM    ---      BYTE      i
      R7          REGSYM    ---      BYTE      dat
      R6          REGSYM    ---      BYTE      i
      WR4         REGSYM    ---      WORD      dat
      R10         REGSYM    ---      BYTE      i
      WR12        REGSYM    ---      WORD      x2
      WR14        REGSYM    ---      WORD      y2
      WR14        REGSYM    ---      WORD      color
      R13         REGSYM    ---      BYTE      i
      WR2         REGSYM    ---      WORD      x
      WR0         REGSYM    ---      WORD      y
      WR14        REGSYM    ---      WORD      color
      WR12        REGSYM    ---      WORD      x
      WR14        REGSYM    ---      WORD      y
      REG=3       REGSYM    ---      ---       dat
L251 LINKER/LOCATER V4.66.93.0                                                        06/25/2023  18:36:41  PAGE 77


      WR12        REGSYM    ---      WORD      x
      WR14        REGSYM    ---      WORD      y
      WR12        REGSYM    ---      WORD      x
      WR14        REGSYM    ---      WORD      y
      R10         REGSYM    ---      BYTE      dat
      WR12        REGSYM    ---      WORD      x
      WR14        REGSYM    ---      WORD      y
      WR12        REGSYM    ---      WORD      x
      WR14        REGSYM    ---      WORD      y
      WR2         REGSYM    ---      WORD      dat
      WR12        REGSYM    ---      WORD      y
      R15         REGSYM    ---      BYTE      num
      R14         REGSYM    ---      BYTE      length
      DR12        REGSYM    ---      FLOAT     dat
      R7          REGSYM    ---      CHAR      point
      R7          REGSYM    ---      BYTE      dat
      R7          REGSYM    ---      BYTE      dat
      WR4         REGSYM    ---      WORD      dat
      WR12        REGSYM    ---      WORD      x2
      WR14        REGSYM    ---      WORD      y2
      WR14        REGSYM    ---      WORD      color
      R13         REGSYM    ---      BYTE      i
      WR2         REGSYM    ---      WORD      x
      WR0         REGSYM    ---      WORD      y
      WR14        REGSYM    ---      WORD      color
      WR12        REGSYM    ---      WORD      x
      WR14        REGSYM    ---      WORD      y
      REG=3       REGSYM    ---      ---       dat
      WR12        REGSYM    ---      WORD      x
      WR14        REGSYM    ---      WORD      y
      WR12        REGSYM    ---      WORD      x
      WR14        REGSYM    ---      WORD      y
      R10         REGSYM    ---      BYTE      dat
      WR12        REGSYM    ---      WORD      x
      WR14        REGSYM    ---      WORD      y
      WR12        REGSYM    ---      WORD      x
      WR14        REGSYM    ---      WORD      y
      WR2         REGSYM    ---      WORD      dat
      WR12        REGSYM    ---      WORD      y
      R15         REGSYM    ---      BYTE      num
      R14         REGSYM    ---      BYTE      length
      DR12        REGSYM    ---      FLOAT     dat
      R7          REGSYM    ---      CHAR      point

      ---         MODULE    ---      ---       adc
      00FF87B7H   PUBLIC    CODE     ---       Use_adc_Init
      000000D0H   SFRSYM    DATA     BYTE      PSW
      0000009DH   SFRSYM    DATA     BYTE      IRCBAND
      00000097H   SFRSYM    DATA     BYTE      AUXR2
      000000EFH   SFRSYM    DATA     BYTE      AUXINTIF
      000000FDH   SFRSYM    DATA     BYTE      S4CON
      000000ACH   SFRSYM    DATA     BYTE      S3CON
      0000009AH   SFRSYM    DATA     BYTE      S2CON
      000000B7H   SFRSYM    DATA     BYTE      IPH
      000000CDH   SFRSYM    DATA     BYTE      SPSTAT
      000000DDH   SFRSYM    DATA     BYTE      T4T3M
      000000C1H   SFRSYM    DATA     BYTE      WDT_CONTR
      000000DFH   SFRSYM    DATA     BYTE      IP3
      000000F4H   SFRSYM    DATA     BYTE      USBCON
      000000B5H   SFRSYM    DATA     BYTE      IP2
      000000FFH   SFRSYM    DATA     BYTE      RSTCFG
      000000F9H   SFRSYM    DATA     BYTE      LINICR
      0000008EH   SFRSYM    DATA     BYTE      AUXR
      000000AFH   SFRSYM    DATA     BYTE      IE2
      00000088H   SFRSYM    DATA     BYTE      TCON
L251 LINKER/LOCATER V4.66.93.0                                                        06/25/2023  18:36:41  PAGE 78


      00000098H   SFRSYM    DATA     BYTE      SCON
      000000F1H   SFRSYM    DATA     BYTE      CANICR
      00000087H   SFRSYM    DATA     BYTE      PCON
      000000BCH   SFRSYM    DATA     BYTE      ADC_CONTR
      000000E7H   SFRSYM    DATA     BYTE      CMPCR2
      000000E6H   SFRSYM    DATA     BYTE      CMPCR1
      000000B8H   SFRSYM    DATA     BYTE      IP
      0000008FH   SFRSYM    DATA     BYTE      INTCLKO
      000000EEH   SFRSYM    DATA     BYTE      IP3H
      000000B6H   SFRSYM    DATA     BYTE      IP2H
      000000A8H   SFRSYM    DATA     BYTE      IE
      000000BBH   SFRSYM    DATA     BYTE      P_SW3
      000000BAH   SFRSYM    DATA     BYTE      P_SW2
      000000A2H   SFRSYM    DATA     BYTE      P_SW1
      000000CEH   SFRSYM    DATA     BYTE      SPCTL
      000000F8H   SFRSYM    DATA     BYTE      P7
      000000E8H   SFRSYM    DATA     BYTE      P6
      000000C8H   SFRSYM    DATA     BYTE      P5
      000000C0H   SFRSYM    DATA     BYTE      P4
      000000B0H   SFRSYM    DATA     BYTE      P3
      000000A0H   SFRSYM    DATA     BYTE      P2
      00000090H   SFRSYM    DATA     BYTE      P1
      00000080H   SFRSYM    DATA     BYTE      P0

      00FF87B7H   BLOCK     CODE     ---       LVL=0
      00FF87B7H   LINE      CODE     ---       #16
      00FF87B7H   LINE      CODE     ---       #20
      00FF87C0H   LINE      CODE     ---       #21
      00FF87C9H   LINE      CODE     ---       #22
      00FF87D2H   LINE      CODE     ---       #23
      00FF87DBH   LINE      CODE     ---       #24
      ---         BLOCKEND  ---      ---       LVL=0
      R13         REGSYM    ---      BYTE      i
      R12         REGSYM    ---      BYTE      n
      R15         REGSYM    ---      BYTE      x
      R14         REGSYM    ---      BYTE      y

      ---         MODULE    ---      ---       allinit
      00FF7EBBH   PUBLIC    CODE     ---       all_init
      000000D0H   SFRSYM    DATA     BYTE      PSW
      0000009DH   SFRSYM    DATA     BYTE      IRCBAND
      00000097H   SFRSYM    DATA     BYTE      AUXR2
      000000EFH   SFRSYM    DATA     BYTE      AUXINTIF
      000000FDH   SFRSYM    DATA     BYTE      S4CON
      000000ACH   SFRSYM    DATA     BYTE      S3CON
      0000009AH   SFRSYM    DATA     BYTE      S2CON
      000000B7H   SFRSYM    DATA     BYTE      IPH
      000000CDH   SFRSYM    DATA     BYTE      SPSTAT
      000000DDH   SFRSYM    DATA     BYTE      T4T3M
      000000C1H   SFRSYM    DATA     BYTE      WDT_CONTR
      000000DFH   SFRSYM    DATA     BYTE      IP3
      000000F4H   SFRSYM    DATA     BYTE      USBCON
      000000B5H   SFRSYM    DATA     BYTE      IP2
      000000FFH   SFRSYM    DATA     BYTE      RSTCFG
      000000F9H   SFRSYM    DATA     BYTE      LINICR
      0000008EH   SFRSYM    DATA     BYTE      AUXR
      000000AFH   SFRSYM    DATA     BYTE      IE2
      000000F8H.7 SFRSYM    DATA     BIT       P77
      00000088H   SFRSYM    DATA     BYTE      TCON
      00000098H   SFRSYM    DATA     BYTE      SCON
      000000F1H   SFRSYM    DATA     BYTE      CANICR
      00000087H   SFRSYM    DATA     BYTE      PCON
      000000BCH   SFRSYM    DATA     BYTE      ADC_CONTR
      000000E7H   SFRSYM    DATA     BYTE      CMPCR2
      000000E6H   SFRSYM    DATA     BYTE      CMPCR1
L251 LINKER/LOCATER V4.66.93.0                                                        06/25/2023  18:36:41  PAGE 79


      000000B8H   SFRSYM    DATA     BYTE      IP
      0000008FH   SFRSYM    DATA     BYTE      INTCLKO
      000000EEH   SFRSYM    DATA     BYTE      IP3H
      000000B6H   SFRSYM    DATA     BYTE      IP2H
      000000A8H   SFRSYM    DATA     BYTE      IE
      000000BBH   SFRSYM    DATA     BYTE      P_SW3
      000000BAH   SFRSYM    DATA     BYTE      P_SW2
      000000A2H   SFRSYM    DATA     BYTE      P_SW1
      000000CEH   SFRSYM    DATA     BYTE      SPCTL
      000000F8H   SFRSYM    DATA     BYTE      P7
      000000E8H   SFRSYM    DATA     BYTE      P6
      000000C8H   SFRSYM    DATA     BYTE      P5
      000000C0H   SFRSYM    DATA     BYTE      P4
      000000B0H   SFRSYM    DATA     BYTE      P3
      000000A0H   SFRSYM    DATA     BYTE      P2
      00000090H   SFRSYM    DATA     BYTE      P1
      00000080H   SFRSYM    DATA     BYTE      P0

      00FF7EBBH   BLOCK     CODE     ---       LVL=0
      00FF7EBBH   LINE      CODE     ---       #3
      00FF7EBBH   LINE      CODE     ---       #5
      00FF7EBEH   LINE      CODE     ---       #7
      00FF7ECFH   LINE      CODE     ---       #8
      00FF7EE0H   LINE      CODE     ---       #9
      00FF7EF1H   LINE      CODE     ---       #10
      00FF7F02H   LINE      CODE     ---       #13
      00FF7F15H   LINE      CODE     ---       #16
      00FF7F18H   LINE      CODE     ---       #19
      00FF7F1BH   LINE      CODE     ---       #22
      00FF7F1EH   LINE      CODE     ---       #23
      00FF7F21H   LINE      CODE     ---       #24
      00FF7F24H   LINE      CODE     ---       #25
      00FF7F27H   LINE      CODE     ---       #27
      00FF7F29H   LINE      CODE     ---       #29
      00FF7F30H   LINE      CODE     ---       #30
      00FF7F35H   LINE      CODE     ---       #32
      00FF7F40H   LINE      CODE     ---       #34
      00FF7F43H   LINE      CODE     ---       #36
      ---         BLOCKEND  ---      ---       LVL=0

      ---         MODULE    ---      ---       encoder
      000007FBH   PUBLIC    EDATA    INT       templ_pluse
      000007FDH   PUBLIC    EDATA    INT       tempr_pluse
      000000D0H   SFRSYM    DATA     BYTE      PSW
      0000009DH   SFRSYM    DATA     BYTE      IRCBAND
      00000097H   SFRSYM    DATA     BYTE      AUXR2
      000000EFH   SFRSYM    DATA     BYTE      AUXINTIF
      000000FDH   SFRSYM    DATA     BYTE      S4CON
      000000ACH   SFRSYM    DATA     BYTE      S3CON
      0000009AH   SFRSYM    DATA     BYTE      S2CON
      000000B7H   SFRSYM    DATA     BYTE      IPH
      000000CDH   SFRSYM    DATA     BYTE      SPSTAT
      000000DDH   SFRSYM    DATA     BYTE      T4T3M
      000000C1H   SFRSYM    DATA     BYTE      WDT_CONTR
      000000DFH   SFRSYM    DATA     BYTE      IP3
      000000F4H   SFRSYM    DATA     BYTE      USBCON
      000000B5H   SFRSYM    DATA     BYTE      IP2
      000000FFH   SFRSYM    DATA     BYTE      RSTCFG
      000000F9H   SFRSYM    DATA     BYTE      LINICR
      0000008EH   SFRSYM    DATA     BYTE      AUXR
      000000AFH   SFRSYM    DATA     BYTE      IE2
      000000B0H.5 SFRSYM    DATA     BIT       P35
      000000C8H.3 SFRSYM    DATA     BIT       P53
      00000088H   SFRSYM    DATA     BYTE      TCON
      00000098H   SFRSYM    DATA     BYTE      SCON
L251 LINKER/LOCATER V4.66.93.0                                                        06/25/2023  18:36:41  PAGE 80


      000000F1H   SFRSYM    DATA     BYTE      CANICR
      00000087H   SFRSYM    DATA     BYTE      PCON
      000000BCH   SFRSYM    DATA     BYTE      ADC_CONTR
      000000E7H   SFRSYM    DATA     BYTE      CMPCR2
      000000E6H   SFRSYM    DATA     BYTE      CMPCR1
      000000B8H   SFRSYM    DATA     BYTE      IP
      0000008FH   SFRSYM    DATA     BYTE      INTCLKO
      000000EEH   SFRSYM    DATA     BYTE      IP3H
      000000B6H   SFRSYM    DATA     BYTE      IP2H
      000000A8H   SFRSYM    DATA     BYTE      IE
      000000BBH   SFRSYM    DATA     BYTE      P_SW3
      000000BAH   SFRSYM    DATA     BYTE      P_SW2
      000000A2H   SFRSYM    DATA     BYTE      P_SW1
      000000CEH   SFRSYM    DATA     BYTE      SPCTL
      000000F8H   SFRSYM    DATA     BYTE      P7
      000000E8H   SFRSYM    DATA     BYTE      P6
      000000C8H   SFRSYM    DATA     BYTE      P5
      000000C0H   SFRSYM    DATA     BYTE      P4
      000000B0H   SFRSYM    DATA     BYTE      P3
      000000A0H   SFRSYM    DATA     BYTE      P2
      00000090H   SFRSYM    DATA     BYTE      P1
      00000080H   SFRSYM    DATA     BYTE      P0
      WR14        REGSYM    ---      INT       datl
      WR14        REGSYM    ---      INT       datr

      ---         MODULE    ---      ---       isr
      00FF8654H   PUBLIC    CODE     ---       UART1_Isr
      00FF8902H   PUBLIC    CODE     ---       UART2_Isr
      00FF891CH   PUBLIC    CODE     ---       UART3_Isr
      00FF80ACH   PUBLIC    CODE     ---       UART4_Isr
      00FF7F46H   PUBLIC    CODE     ---       INT0_Isr
      00FF000AH   PUBLIC    CODE     ---       INT1_Isr
      00FF0006H   PUBLIC    CODE     ---       INT2_Isr
      00FF000EH   PUBLIC    CODE     ---       INT3_Isr
      00FF0016H   PUBLIC    CODE     ---       INT4_Isr
      00FF88C1H   PUBLIC    CODE     ---       DMA_ISR_Handler
      00FF0012H   PUBLIC    CODE     ---       TM0_Isr
      00FF001AH   PUBLIC    CODE     ---       TM1_Isr
      00FF001EH   PUBLIC    CODE     ---       TM2_Isr
      00FF0056H   PUBLIC    CODE     ---       TM3_Isr
      00FF872DH   PUBLIC    CODE     ---       TM4_Isr
      0000001AH   PUBLIC    EDATA    INT       duty
      0000001CH   PUBLIC    EDATA    INT       f
      000000D0H   SFRSYM    DATA     BYTE      PSW
      0000009DH   SFRSYM    DATA     BYTE      IRCBAND
      00000097H   SFRSYM    DATA     BYTE      AUXR2
      000000EFH   SFRSYM    DATA     BYTE      AUXINTIF
      000000FDH   SFRSYM    DATA     BYTE      S4CON
      000000ACH   SFRSYM    DATA     BYTE      S3CON
      0000009AH   SFRSYM    DATA     BYTE      S2CON
      000000B7H   SFRSYM    DATA     BYTE      IPH
      000000CDH   SFRSYM    DATA     BYTE      SPSTAT
      000000DDH   SFRSYM    DATA     BYTE      T4T3M
      000000C1H   SFRSYM    DATA     BYTE      WDT_CONTR
      000000DFH   SFRSYM    DATA     BYTE      IP3
      000000F4H   SFRSYM    DATA     BYTE      USBCON
      000000B5H   SFRSYM    DATA     BYTE      IP2
      000000FFH   SFRSYM    DATA     BYTE      RSTCFG
      000000C7H   SFRSYM    DATA     BYTE      IAP_CONTR
      000000F9H   SFRSYM    DATA     BYTE      LINICR
      0000008EH   SFRSYM    DATA     BYTE      AUXR
      000000AFH   SFRSYM    DATA     BYTE      IE2
      00000088H   SFRSYM    DATA     BYTE      TCON
      000000B0H.2 SFRSYM    DATA     BIT       P32
      00000098H   SFRSYM    DATA     BYTE      SCON
L251 LINKER/LOCATER V4.66.93.0                                                        06/25/2023  18:36:41  PAGE 81


      000000F1H   SFRSYM    DATA     BYTE      CANICR
      00000087H   SFRSYM    DATA     BYTE      PCON
      00000099H   SFRSYM    DATA     BYTE      SBUF
      000000BCH   SFRSYM    DATA     BYTE      ADC_CONTR
      000000E7H   SFRSYM    DATA     BYTE      CMPCR2
      000000E6H   SFRSYM    DATA     BYTE      CMPCR1
      000000B8H   SFRSYM    DATA     BYTE      IP
      0000008FH   SFRSYM    DATA     BYTE      INTCLKO
      000000EEH   SFRSYM    DATA     BYTE      IP3H
      000000B6H   SFRSYM    DATA     BYTE      IP2H
      000000A8H   SFRSYM    DATA     BYTE      IE
      000000BBH   SFRSYM    DATA     BYTE      P_SW3
      000000BAH   SFRSYM    DATA     BYTE      P_SW2
      000000A2H   SFRSYM    DATA     BYTE      P_SW1
      000000CEH   SFRSYM    DATA     BYTE      SPCTL
      000000F8H   SFRSYM    DATA     BYTE      P7
      000000E8H   SFRSYM    DATA     BYTE      P6
      000000C8H   SFRSYM    DATA     BYTE      P5
      000000C0H   SFRSYM    DATA     BYTE      P4
      000000B0H   SFRSYM    DATA     BYTE      P3
      000000A0H   SFRSYM    DATA     BYTE      P2
      00000090H   SFRSYM    DATA     BYTE      P1
      00000080H   SFRSYM    DATA     BYTE      P0

      00FF8654H   BLOCK     CODE     ---       LVL=0
      00FF8656H   BLOCK     CODE     NEAR LAB  LVL=1
      R11         REGSYM    ---      BYTE      res
      0000001EH   SYMBOL    EDATA    BYTE      dwon_count
      ---         BLOCKEND  ---      ---       LVL=1
      00FF8654H   LINE      CODE     ---       #25
      00FF8656H   LINE      CODE     ---       #26
      00FF8656H   LINE      CODE     ---       #29
      00FF865BH   LINE      CODE     ---       #31
      00FF865EH   LINE      CODE     ---       #32
      00FF8663H   LINE      CODE     ---       #33
      00FF8663H   LINE      CODE     ---       #34
      00FF8668H   LINE      CODE     ---       #36
      00FF866BH   LINE      CODE     ---       #37
      00FF866DH   LINE      CODE     ---       #39
      00FF8670H   LINE      CODE     ---       #41
      00FF8680H   LINE      CODE     ---       #42
      00FF8683H   LINE      CODE     ---       #43
      00FF8685H   LINE      CODE     ---       #46
      00FF868AH   LINE      CODE     ---       #47
      00FF868AH   LINE      CODE     ---       #48
      ---         BLOCKEND  ---      ---       LVL=0

      00FF8902H   BLOCK     CODE     ---       LVL=0
      00FF8902H   LINE      CODE     ---       #52
      00FF8904H   LINE      CODE     ---       #54
      00FF8909H   LINE      CODE     ---       #56
      00FF890CH   LINE      CODE     ---       #57
      00FF8911H   LINE      CODE     ---       #58
      00FF8911H   LINE      CODE     ---       #59
      00FF8916H   LINE      CODE     ---       #61
      00FF8919H   LINE      CODE     ---       #64
      ---         BLOCKEND  ---      ---       LVL=0

      00FF891CH   BLOCK     CODE     ---       LVL=0
      00FF891CH   LINE      CODE     ---       #69
      00FF891EH   LINE      CODE     ---       #71
      00FF8923H   LINE      CODE     ---       #73
      00FF8926H   LINE      CODE     ---       #74
      00FF892BH   LINE      CODE     ---       #75
      00FF892BH   LINE      CODE     ---       #76
L251 LINKER/LOCATER V4.66.93.0                                                        06/25/2023  18:36:41  PAGE 82


      00FF8930H   LINE      CODE     ---       #78
      00FF8933H   LINE      CODE     ---       #81
      ---         BLOCKEND  ---      ---       LVL=0

      00FF80ACH   BLOCK     CODE     ---       LVL=0
      00FF80ACH   LINE      CODE     ---       #86
      00FF80C2H   LINE      CODE     ---       #88
      00FF80C7H   LINE      CODE     ---       #90
      00FF80CAH   LINE      CODE     ---       #91
      00FF80CFH   LINE      CODE     ---       #92
      00FF80CFH   LINE      CODE     ---       #93
      00FF80D4H   LINE      CODE     ---       #95
      00FF80D7H   LINE      CODE     ---       #98
      00FF80E1H   LINE      CODE     ---       #100
      00FF80E4H   LINE      CODE     ---       #101
      00FF80E6H   LINE      CODE     ---       #102
      00FF80ECH   LINE      CODE     ---       #104
      00FF80EFH   LINE      CODE     ---       #105
      00FF80F1H   LINE      CODE     ---       #106
      00FF80F7H   LINE      CODE     ---       #108
      00FF80FAH   LINE      CODE     ---       #109
      00FF80FAH   LINE      CODE     ---       #111
      ---         BLOCKEND  ---      ---       LVL=0

      00FF7F46H   BLOCK     CODE     ---       LVL=0
      00FF7F46H   LINE      CODE     ---       #114
      00FF7F5AH   LINE      CODE     ---       #116
      00FF7F5AH   LINE      CODE     ---       #117
      00FF7F61H   LINE      CODE     ---       #118
      00FF7F67H   LINE      CODE     ---       #119
      00FF7F6EH   LINE      CODE     ---       #120
      00FF7F82H   LINE      CODE     ---       #122
      00FF7F8AH   LINE      CODE     ---       #123
      00FF7F94H   LINE      CODE     ---       #124
      00FF7FA0H   LINE      CODE     ---       #125
      00FF7FA2H   LINE      CODE     ---       #126
      00FF7FAAH   LINE      CODE     ---       #128
      00FF7FAAH   LINE      CODE     ---       #129
      00FF7FADH   LINE      CODE     ---       #131
      ---         BLOCKEND  ---      ---       LVL=0

      00FF000AH   BLOCK     CODE     ---       LVL=0
      00FF000AH   LINE      CODE     ---       #134
      00FF000AH   LINE      CODE     ---       #137
      ---         BLOCKEND  ---      ---       LVL=0

      00FF0006H   BLOCK     CODE     ---       LVL=0
      00FF0006H   LINE      CODE     ---       #138
      00FF0006H   LINE      CODE     ---       #140
      00FF0009H   LINE      CODE     ---       #141
      ---         BLOCKEND  ---      ---       LVL=0

      00FF000EH   BLOCK     CODE     ---       LVL=0
      00FF000EH   LINE      CODE     ---       #142
      00FF000EH   LINE      CODE     ---       #144
      00FF0011H   LINE      CODE     ---       #145
      ---         BLOCKEND  ---      ---       LVL=0

      00FF0016H   BLOCK     CODE     ---       LVL=0
      00FF0016H   LINE      CODE     ---       #147
      00FF0016H   LINE      CODE     ---       #149
      00FF0019H   LINE      CODE     ---       #150
      ---         BLOCKEND  ---      ---       LVL=0

      00FF0012H   BLOCK     CODE     ---       LVL=0
L251 LINKER/LOCATER V4.66.93.0                                                        06/25/2023  18:36:41  PAGE 83


      00FF0012H   LINE      CODE     ---       #152
      00FF0012H   LINE      CODE     ---       #155
      ---         BLOCKEND  ---      ---       LVL=0

      00FF001AH   BLOCK     CODE     ---       LVL=0
      00FF001AH   LINE      CODE     ---       #156
      00FF001AH   LINE      CODE     ---       #159
      ---         BLOCKEND  ---      ---       LVL=0

      00FF001EH   BLOCK     CODE     ---       LVL=0
      00FF001EH   LINE      CODE     ---       #160
      00FF001EH   LINE      CODE     ---       #162
      00FF0021H   LINE      CODE     ---       #164
      ---         BLOCKEND  ---      ---       LVL=0

      00FF0056H   BLOCK     CODE     ---       LVL=0
      00FF0056H   LINE      CODE     ---       #165
      00FF0056H   LINE      CODE     ---       #167
      00FF0059H   LINE      CODE     ---       #169
      ---         BLOCKEND  ---      ---       LVL=0

      00FF872DH   BLOCK     CODE     ---       LVL=0
      00FF872DH   LINE      CODE     ---       #172
      00FF8741H   LINE      CODE     ---       #174
      00FF8744H   LINE      CODE     ---       #176
      00FF8747H   LINE      CODE     ---       #178
      ---         BLOCKEND  ---      ---       LVL=0

      00FF88C1H   BLOCK     CODE     ---       LVL=0
      00FF88C1H   LINE      CODE     ---       #203
      00FF88C5H   LINE      CODE     ---       #208
      00FF88D3H   LINE      CODE     ---       #210
      00FF88DBH   LINE      CODE     ---       #211
      00FF88DDH   LINE      CODE     ---       #212
      ---         BLOCKEND  ---      ---       LVL=0

      ---         MODULE    ---      ---       main
      00FF0086H   PUBLIC    CODE     ---       pit_handler
      00FF868DH   PUBLIC    CODE     ---       main
      000000D0H   SFRSYM    DATA     BYTE      PSW
      0000009DH   SFRSYM    DATA     BYTE      IRCBAND
      00000097H   SFRSYM    DATA     BYTE      AUXR2
      000000EFH   SFRSYM    DATA     BYTE      AUXINTIF
      000000FDH   SFRSYM    DATA     BYTE      S4CON
      000000ACH   SFRSYM    DATA     BYTE      S3CON
      0000009AH   SFRSYM    DATA     BYTE      S2CON
      000000B7H   SFRSYM    DATA     BYTE      IPH
      000000CDH   SFRSYM    DATA     BYTE      SPSTAT
      000000DDH   SFRSYM    DATA     BYTE      T4T3M
      000000C1H   SFRSYM    DATA     BYTE      WDT_CONTR
      000000DFH   SFRSYM    DATA     BYTE      IP3
      000000F4H   SFRSYM    DATA     BYTE      USBCON
      000000B5H   SFRSYM    DATA     BYTE      IP2
      000000FFH   SFRSYM    DATA     BYTE      RSTCFG
      000000F9H   SFRSYM    DATA     BYTE      LINICR
      0000008EH   SFRSYM    DATA     BYTE      AUXR
      000000AFH   SFRSYM    DATA     BYTE      IE2
      00000088H   SFRSYM    DATA     BYTE      TCON
      00000098H   SFRSYM    DATA     BYTE      SCON
      000000F1H   SFRSYM    DATA     BYTE      CANICR
      00000087H   SFRSYM    DATA     BYTE      PCON
      000000BCH   SFRSYM    DATA     BYTE      ADC_CONTR
      000000E7H   SFRSYM    DATA     BYTE      CMPCR2
      000000E6H   SFRSYM    DATA     BYTE      CMPCR1
      000000B8H   SFRSYM    DATA     BYTE      IP
L251 LINKER/LOCATER V4.66.93.0                                                        06/25/2023  18:36:41  PAGE 84


      0000008FH   SFRSYM    DATA     BYTE      INTCLKO
      000000EEH   SFRSYM    DATA     BYTE      IP3H
      000000B6H   SFRSYM    DATA     BYTE      IP2H
      000000A8H   SFRSYM    DATA     BYTE      IE
      000000BBH   SFRSYM    DATA     BYTE      P_SW3
      000000BAH   SFRSYM    DATA     BYTE      P_SW2
      000000A2H   SFRSYM    DATA     BYTE      P_SW1
      000000CEH   SFRSYM    DATA     BYTE      SPCTL
      000000F8H   SFRSYM    DATA     BYTE      P7
      000000E8H   SFRSYM    DATA     BYTE      P6
      000000C8H   SFRSYM    DATA     BYTE      P5
      000000C0H   SFRSYM    DATA     BYTE      P4
      000000B0H   SFRSYM    DATA     BYTE      P3
      000000A0H   SFRSYM    DATA     BYTE      P2
      00000090H   SFRSYM    DATA     BYTE      P1
      00000080H   SFRSYM    DATA     BYTE      P0

      00FF868DH   BLOCK     CODE     ---       LVL=0
      00FF868DH   LINE      CODE     ---       #27
      00FF868DH   LINE      CODE     ---       #29
      00FF8690H   LINE      CODE     ---       #30
      00FF8693H   LINE      CODE     ---       #31
      00FF8696H   LINE      CODE     ---       #32
      00FF86A1H   LINE      CODE     ---       #33
      00FF86A4H   LINE      CODE     ---       #34
      00FF86A4H   LINE      CODE     ---       #40
      00FF86AAH   LINE      CODE     ---       #42
      00FF86BDH   LINE      CODE     ---       #43
      00FF86C2H   LINE      CODE     ---       #44
      ---         BLOCKEND  ---      ---       LVL=0

      00FF0086H   BLOCK     CODE     ---       LVL=0
      00FF0086H   LINE      CODE     ---       #80
      00FF0086H   LINE      CODE     ---       #82
      ---         BLOCKEND  ---      ---       LVL=0

      ---         MODULE    ---      ---       motor
      000000D0H   SFRSYM    DATA     BYTE      PSW
      0000009DH   SFRSYM    DATA     BYTE      IRCBAND
      00000097H   SFRSYM    DATA     BYTE      AUXR2
      000000EFH   SFRSYM    DATA     BYTE      AUXINTIF
      000000FDH   SFRSYM    DATA     BYTE      S4CON
      000000ACH   SFRSYM    DATA     BYTE      S3CON
      0000009AH   SFRSYM    DATA     BYTE      S2CON
      000000B7H   SFRSYM    DATA     BYTE      IPH
      000000CDH   SFRSYM    DATA     BYTE      SPSTAT
      000000DDH   SFRSYM    DATA     BYTE      T4T3M
      000000C1H   SFRSYM    DATA     BYTE      WDT_CONTR
      000000DFH   SFRSYM    DATA     BYTE      IP3
      000000F4H   SFRSYM    DATA     BYTE      USBCON
      000000B5H   SFRSYM    DATA     BYTE      IP2
      000000FFH   SFRSYM    DATA     BYTE      RSTCFG
      000000F9H   SFRSYM    DATA     BYTE      LINICR
      0000008EH   SFRSYM    DATA     BYTE      AUXR
      000000AFH   SFRSYM    DATA     BYTE      IE2
      00000088H   SFRSYM    DATA     BYTE      TCON
      00000098H   SFRSYM    DATA     BYTE      SCON
      000000F1H   SFRSYM    DATA     BYTE      CANICR
      00000087H   SFRSYM    DATA     BYTE      PCON
      000000BCH   SFRSYM    DATA     BYTE      ADC_CONTR
      000000E7H   SFRSYM    DATA     BYTE      CMPCR2
      000000E6H   SFRSYM    DATA     BYTE      CMPCR1
      000000B8H   SFRSYM    DATA     BYTE      IP
      0000008FH   SFRSYM    DATA     BYTE      INTCLKO
      000000EEH   SFRSYM    DATA     BYTE      IP3H
L251 LINKER/LOCATER V4.66.93.0                                                        06/25/2023  18:36:41  PAGE 85


      000000B6H   SFRSYM    DATA     BYTE      IP2H
      000000A8H   SFRSYM    DATA     BYTE      IE
      000000BBH   SFRSYM    DATA     BYTE      P_SW3
      000000BAH   SFRSYM    DATA     BYTE      P_SW2
      000000A2H   SFRSYM    DATA     BYTE      P_SW1
      000000CEH   SFRSYM    DATA     BYTE      SPCTL
      000000F8H   SFRSYM    DATA     BYTE      P7
      000000E8H   SFRSYM    DATA     BYTE      P6
      000000C8H   SFRSYM    DATA     BYTE      P5
      000000C0H   SFRSYM    DATA     BYTE      P4
      000000B0H   SFRSYM    DATA     BYTE      P3
      000000A0H   SFRSYM    DATA     BYTE      P2
      00000090H   SFRSYM    DATA     BYTE      P1
      00000080H   SFRSYM    DATA     BYTE      P0

      ---         MODULE    ---      ---       oled
      00FF7976H   PUBLIC    CODE     ---       OLED_Init
      00FF8936H   PUBLIC    CODE     ---       OLED_WR_Byte
      00FF84E9H   PUBLIC    CODE     ---       OLED_Refresh
      00FF006EH   PUBLIC    CODE     ---       OLED_DisPlay_On
      00FF887CH   PUBLIC    CODE     ---       OLED_Clear
      00FF00A6H   PUBLIC    CODE     ---       asc2_2412
      00FF0E02H   PUBLIC    CODE     ---       asc2_1206
      00FF1276H   PUBLIC    CODE     ---       asc2_1608
      00FF1866H   PUBLIC    CODE     ---       Hzk1
      00FF19C6H   PUBLIC    CODE     ---       Hzk2
      00FF1A9EH   PUBLIC    CODE     ---       Hzk3
      00FF1C9EH   PUBLIC    CODE     ---       Hzk4
      00000021H   PUBLIC    EDATA    ---       OLED_GRAM
      000000D0H   SFRSYM    DATA     BYTE      PSW
      0000009DH   SFRSYM    DATA     BYTE      IRCBAND
      00000097H   SFRSYM    DATA     BYTE      AUXR2
      000000EFH   SFRSYM    DATA     BYTE      AUXINTIF
      000000FDH   SFRSYM    DATA     BYTE      S4CON
      000000ACH   SFRSYM    DATA     BYTE      S3CON
      0000009AH   SFRSYM    DATA     BYTE      S2CON
      000000B7H   SFRSYM    DATA     BYTE      IPH
      000000CDH   SFRSYM    DATA     BYTE      SPSTAT
      000000DDH   SFRSYM    DATA     BYTE      T4T3M
      000000C1H   SFRSYM    DATA     BYTE      WDT_CONTR
      000000DFH   SFRSYM    DATA     BYTE      IP3
      000000F4H   SFRSYM    DATA     BYTE      USBCON
      000000B5H   SFRSYM    DATA     BYTE      IP2
      000000FFH   SFRSYM    DATA     BYTE      RSTCFG
      000000F9H   SFRSYM    DATA     BYTE      LINICR
      0000008EH   SFRSYM    DATA     BYTE      AUXR
      000000AFH   SFRSYM    DATA     BYTE      IE2
      00000088H   SFRSYM    DATA     BYTE      TCON
      00000098H   SFRSYM    DATA     BYTE      SCON
      000000A0H.2 SFRSYM    DATA     BIT       P22
      000000A0H.1 SFRSYM    DATA     BIT       P21
      000000A0H.0 SFRSYM    DATA     BIT       P20
      000000F1H   SFRSYM    DATA     BYTE      CANICR
      00000087H   SFRSYM    DATA     BYTE      PCON
      000000BCH   SFRSYM    DATA     BYTE      ADC_CONTR
      000000E7H   SFRSYM    DATA     BYTE      CMPCR2
      000000E6H   SFRSYM    DATA     BYTE      CMPCR1
      000000B8H   SFRSYM    DATA     BYTE      IP
      0000008FH   SFRSYM    DATA     BYTE      INTCLKO
      000000EEH   SFRSYM    DATA     BYTE      IP3H
      000000B6H   SFRSYM    DATA     BYTE      IP2H
      000000A8H   SFRSYM    DATA     BYTE      IE
      000000BBH   SFRSYM    DATA     BYTE      P_SW3
      000000BAH   SFRSYM    DATA     BYTE      P_SW2
      000000A2H   SFRSYM    DATA     BYTE      P_SW1
L251 LINKER/LOCATER V4.66.93.0                                                        06/25/2023  18:36:41  PAGE 86


      000000CEH   SFRSYM    DATA     BYTE      SPCTL
      000000F8H   SFRSYM    DATA     BYTE      P7
      000000E8H   SFRSYM    DATA     BYTE      P6
      000000C8H   SFRSYM    DATA     BYTE      P5
      000000C0H   SFRSYM    DATA     BYTE      P4
      000000B0H   SFRSYM    DATA     BYTE      P3
      000000A0H   SFRSYM    DATA     BYTE      P2
      00000090H   SFRSYM    DATA     BYTE      P1
      00000080H   SFRSYM    DATA     BYTE      P0
      R15         REGSYM    ---      BYTE      i
      R15         REGSYM    ---      BYTE      i

      00FF8936H   BLOCK     CODE     ---       LVL=0
      R7          REGSYM    ---      BYTE      dat
      R10         REGSYM    ---      BYTE      cmd
      00FF8936H   LINE      CODE     ---       #37
      00FF893AH   LINE      CODE     ---       #40
      00FF893EH   LINE      CODE     ---       #41
      00FF8942H   LINE      CODE     ---       #43
      00FF8944H   LINE      CODE     ---       #44
      00FF8946H   LINE      CODE     ---       #45
      00FF894BH   LINE      CODE     ---       #46
      00FF894DH   LINE      CODE     ---       #47
      00FF894FH   LINE      CODE     ---       #48
      ---         BLOCKEND  ---      ---       LVL=0

      00FF006EH   BLOCK     CODE     ---       LVL=0
      00FF006EH   LINE      CODE     ---       #51
      00FF006EH   LINE      CODE     ---       #53
      00FF0075H   LINE      CODE     ---       #54
      00FF007CH   LINE      CODE     ---       #55
      ---         BLOCKEND  ---      ---       LVL=0

      00FF84E9H   BLOCK     CODE     ---       LVL=0
      00FF84EBH   BLOCK     CODE     NEAR LAB  LVL=1
      R15         REGSYM    ---      BYTE      i
      R14         REGSYM    ---      BYTE      n
      ---         BLOCKEND  ---      ---       LVL=1
      00FF84E9H   LINE      CODE     ---       #67
      00FF84EBH   LINE      CODE     ---       #68
      00FF84EBH   LINE      CODE     ---       #70
      00FF84EDH   LINE      CODE     ---       #73
      00FF84F6H   LINE      CODE     ---       #74
      00FF84FCH   LINE      CODE     ---       #75
      00FF8503H   LINE      CODE     ---       #76
      00FF8505H   LINE      CODE     ---       #77
      00FF851FH   LINE      CODE     ---       #78
      00FF8526H   LINE      CODE     ---       #79
      ---         BLOCKEND  ---      ---       LVL=0

      00FF887CH   BLOCK     CODE     ---       LVL=0
      R7          REGSYM    ---      BYTE      i
      R6          REGSYM    ---      BYTE      n
      00FF887CH   LINE      CODE     ---       #81
      00FF887CH   LINE      CODE     ---       #82
      00FF887CH   LINE      CODE     ---       #84
      00FF887EH   LINE      CODE     ---       #86
      00FF8880H   LINE      CODE     ---       #88
      00FF888FH   LINE      CODE     ---       #89
      00FF8895H   LINE      CODE     ---       #90
      00FF889CH   LINE      CODE     ---       #91
      ---         BLOCKEND  ---      ---       LVL=0
      R3          REGSYM    ---      BYTE      x
      R10         REGSYM    ---      BYTE      y
      R2          REGSYM    ---      BYTE      i
L251 LINKER/LOCATER V4.66.93.0                                                        06/25/2023  18:36:41  PAGE 87


      R11         REGSYM    ---      BYTE      m
      R6          REGSYM    ---      BYTE      n
      R2          REGSYM    ---      BYTE      x
      R5          REGSYM    ---      BYTE      y
      R3          REGSYM    ---      BYTE      i
      R11         REGSYM    ---      BYTE      m
      R4          REGSYM    ---      BYTE      n
      R13         REGSYM    ---      BYTE      x
      R14         REGSYM    ---      BYTE      y
      R10         REGSYM    ---      BYTE      chr
      R15         REGSYM    ---      BYTE      size1
      R12         REGSYM    ---      BYTE      i
      REG=3       REGSYM    ---      ---       chr
      R3          REGSYM    ---      BYTE      m
      R10         REGSYM    ---      BYTE      n
      WR6         REGSYM    ---      WORD      result
      WR14        REGSYM    ---      WORD      num
      R12         REGSYM    ---      BYTE      len
      R13         REGSYM    ---      BYTE      size1
      R14         REGSYM    ---      BYTE      x
      R13         REGSYM    ---      BYTE      y
      R12         REGSYM    ---      BYTE      num
      R15         REGSYM    ---      BYTE      size1
      R14         REGSYM    ---      BYTE      num
      R15         REGSYM    ---      BYTE      space
      R12         REGSYM    ---      BYTE      i
      R13         REGSYM    ---      BYTE      n
      R15         REGSYM    ---      BYTE      x
      R10         REGSYM    ---      BYTE      y
      R10         REGSYM    ---      BYTE      y0
      REG=3       REGSYM    ---      ---       BMP

      00FF7976H   BLOCK     CODE     ---       LVL=0
      00FF7976H   LINE      CODE     ---       #382
      00FF7976H   LINE      CODE     ---       #385
      00FF798FH   LINE      CODE     ---       #387
      00FF7991H   LINE      CODE     ---       #388
      00FF7998H   LINE      CODE     ---       #389
      00FF799AH   LINE      CODE     ---       #391
      00FF79A1H   LINE      CODE     ---       #392
      00FF79A7H   LINE      CODE     ---       #393
      00FF79AEH   LINE      CODE     ---       #394
      00FF79B5H   LINE      CODE     ---       #395
      00FF79BCH   LINE      CODE     ---       #396
      00FF79C3H   LINE      CODE     ---       #397
      00FF79CAH   LINE      CODE     ---       #398
      00FF79D1H   LINE      CODE     ---       #399
      00FF79D8H   LINE      CODE     ---       #400
      00FF79DFH   LINE      CODE     ---       #401
      00FF79E6H   LINE      CODE     ---       #402
      00FF79EDH   LINE      CODE     ---       #403
      00FF79F3H   LINE      CODE     ---       #404
      00FF79FAH   LINE      CODE     ---       #405
      00FF7A01H   LINE      CODE     ---       #406
      00FF7A08H   LINE      CODE     ---       #407
      00FF7A0FH   LINE      CODE     ---       #408
      00FF7A16H   LINE      CODE     ---       #409
      00FF7A1DH   LINE      CODE     ---       #410
      00FF7A24H   LINE      CODE     ---       #411
      00FF7A2BH   LINE      CODE     ---       #412
      00FF7A32H   LINE      CODE     ---       #413
      00FF7A39H   LINE      CODE     ---       #414
      00FF7A40H   LINE      CODE     ---       #415
      00FF7A47H   LINE      CODE     ---       #416
      00FF7A4EH   LINE      CODE     ---       #417
L251 LINKER/LOCATER V4.66.93.0                                                        06/25/2023  18:36:41  PAGE 88


      00FF7A55H   LINE      CODE     ---       #418
      00FF7A5CH   LINE      CODE     ---       #419
      ---         BLOCKEND  ---      ---       LVL=0

      ---         MODULE    ---      ---       PID
      000000D0H   SFRSYM    DATA     BYTE      PSW
      0000009DH   SFRSYM    DATA     BYTE      IRCBAND
      00000097H   SFRSYM    DATA     BYTE      AUXR2
      000000EFH   SFRSYM    DATA     BYTE      AUXINTIF
      000000FDH   SFRSYM    DATA     BYTE      S4CON
      000000ACH   SFRSYM    DATA     BYTE      S3CON
      0000009AH   SFRSYM    DATA     BYTE      S2CON
      000000B7H   SFRSYM    DATA     BYTE      IPH
      000000CDH   SFRSYM    DATA     BYTE      SPSTAT
      000000DDH   SFRSYM    DATA     BYTE      T4T3M
      000000C1H   SFRSYM    DATA     BYTE      WDT_CONTR
      000000DFH   SFRSYM    DATA     BYTE      IP3
      000000F4H   SFRSYM    DATA     BYTE      USBCON
      000000B5H   SFRSYM    DATA     BYTE      IP2
      000000FFH   SFRSYM    DATA     BYTE      RSTCFG
      000000F9H   SFRSYM    DATA     BYTE      LINICR
      0000008EH   SFRSYM    DATA     BYTE      AUXR
      000000AFH   SFRSYM    DATA     BYTE      IE2
      00000088H   SFRSYM    DATA     BYTE      TCON
      00000098H   SFRSYM    DATA     BYTE      SCON
      000000F1H   SFRSYM    DATA     BYTE      CANICR
      00000087H   SFRSYM    DATA     BYTE      PCON
      000000BCH   SFRSYM    DATA     BYTE      ADC_CONTR
      000000E7H   SFRSYM    DATA     BYTE      CMPCR2
      000000E6H   SFRSYM    DATA     BYTE      CMPCR1
      000000B8H   SFRSYM    DATA     BYTE      IP
      0000008FH   SFRSYM    DATA     BYTE      INTCLKO
      000000EEH   SFRSYM    DATA     BYTE      IP3H
      000000B6H   SFRSYM    DATA     BYTE      IP2H
      000000A8H   SFRSYM    DATA     BYTE      IE
      000000BBH   SFRSYM    DATA     BYTE      P_SW3
      000000BAH   SFRSYM    DATA     BYTE      P_SW2
      000000A2H   SFRSYM    DATA     BYTE      P_SW1
      000000CEH   SFRSYM    DATA     BYTE      SPCTL
      000000F8H   SFRSYM    DATA     BYTE      P7
      000000E8H   SFRSYM    DATA     BYTE      P6
      000000C8H   SFRSYM    DATA     BYTE      P5
      000000C0H   SFRSYM    DATA     BYTE      P4
      000000B0H   SFRSYM    DATA     BYTE      P3
      000000A0H   SFRSYM    DATA     BYTE      P2
      00000090H   SFRSYM    DATA     BYTE      P1
      00000080H   SFRSYM    DATA     BYTE      P0
      DR28        REGSYM    ---      FLOAT     amt
      DR24        REGSYM    ---      FLOAT     low
      REG=2       REGSYM    ---      ---       PIDL
      REG=2       REGSYM    ---      ---       PIDR
      DR4         REGSYM    ---      FLOAT     SetValue
      DR28        REGSYM    ---      FLOAT     ActualValue
      DR4         REGSYM    ---      FLOAT     SetValue
      DR28        REGSYM    ---      FLOAT     ActualValue
      DR24        REGSYM    ---      FLOAT     SetValue
      DR28        REGSYM    ---      FLOAT     ActualValue
      DR24        REGSYM    ---      FLOAT     SetValue
      DR28        REGSYM    ---      FLOAT     ActualValue

      ---         MODULE    ---      ---       PWM
      000000D0H   SFRSYM    DATA     BYTE      PSW
      0000009DH   SFRSYM    DATA     BYTE      IRCBAND
      00000097H   SFRSYM    DATA     BYTE      AUXR2
      000000EFH   SFRSYM    DATA     BYTE      AUXINTIF
L251 LINKER/LOCATER V4.66.93.0                                                        06/25/2023  18:36:41  PAGE 89


      000000FDH   SFRSYM    DATA     BYTE      S4CON
      000000ACH   SFRSYM    DATA     BYTE      S3CON
      0000009AH   SFRSYM    DATA     BYTE      S2CON
      000000B7H   SFRSYM    DATA     BYTE      IPH
      000000CDH   SFRSYM    DATA     BYTE      SPSTAT
      000000DDH   SFRSYM    DATA     BYTE      T4T3M
      000000C1H   SFRSYM    DATA     BYTE      WDT_CONTR
      000000DFH   SFRSYM    DATA     BYTE      IP3
      000000F4H   SFRSYM    DATA     BYTE      USBCON
      000000B5H   SFRSYM    DATA     BYTE      IP2
      000000FFH   SFRSYM    DATA     BYTE      RSTCFG
      000000F9H   SFRSYM    DATA     BYTE      LINICR
      0000008EH   SFRSYM    DATA     BYTE      AUXR
      000000AFH   SFRSYM    DATA     BYTE      IE2
      00000088H   SFRSYM    DATA     BYTE      TCON
      00000098H   SFRSYM    DATA     BYTE      SCON
      000000F1H   SFRSYM    DATA     BYTE      CANICR
      00000087H   SFRSYM    DATA     BYTE      PCON
      000000BCH   SFRSYM    DATA     BYTE      ADC_CONTR
      000000E7H   SFRSYM    DATA     BYTE      CMPCR2
      000000E6H   SFRSYM    DATA     BYTE      CMPCR1
      000000B8H   SFRSYM    DATA     BYTE      IP
      0000008FH   SFRSYM    DATA     BYTE      INTCLKO
      000000EEH   SFRSYM    DATA     BYTE      IP3H
      000000B6H   SFRSYM    DATA     BYTE      IP2H
      000000A8H   SFRSYM    DATA     BYTE      IE
      000000BBH   SFRSYM    DATA     BYTE      P_SW3
      000000BAH   SFRSYM    DATA     BYTE      P_SW2
      000000A2H   SFRSYM    DATA     BYTE      P_SW1
      000000CEH   SFRSYM    DATA     BYTE      SPCTL
      000000F8H   SFRSYM    DATA     BYTE      P7
      000000E8H   SFRSYM    DATA     BYTE      P6
      000000C8H   SFRSYM    DATA     BYTE      P5
      000000C0H   SFRSYM    DATA     BYTE      P4
      000000B0H   SFRSYM    DATA     BYTE      P3
      000000A0H   SFRSYM    DATA     BYTE      P2
      00000090H   SFRSYM    DATA     BYTE      P1
      00000080H   SFRSYM    DATA     BYTE      P0

      ---         MODULE    ---      ---       SEEKFREE_CONFIG
      00FF2C9EH   PUBLIC    CODE     ---       imu660ra_config_file

      ---         MODULE    ---      ---       ?C?FPADD
      00FF5AECH   PUBLIC    CODE     ---       ?C?FPADD
      00FF5AE9H   PUBLIC    CODE     ---       ?C?FPSUB

      ---         MODULE    ---      ---       ?C?FPMUL
      00FF5BA4H   PUBLIC    CODE     ---       ?C?FPMUL

      ---         MODULE    ---      ---       ?C?FPDIV
      00FF5C44H   PUBLIC    CODE     ---       ?C?FPDIV

      ---         MODULE    ---      ---       ?C?FPCMP
      00FF5CC7H   PUBLIC    CODE     ---       ?C?FPCMP
      00FF5CC5H   PUBLIC    CODE     ---       ?C?FPCMP3

      ---         MODULE    ---      ---       ?C?FCAST
      00FF5D15H   PUBLIC    CODE     NEAR LAB  ?C?FCASTC
      00FF5D10H   PUBLIC    CODE     NEAR LAB  ?C?FCASTI
      00FF5D0BH   PUBLIC    CODE     NEAR LAB  ?C?FCASTL

      ---         MODULE    ---      ---       ?C?CASTF
      00FF5D48H   PUBLIC    CODE     NEAR LAB  ?C?CASTF

      ---         MODULE    ---      ---       PRINTF
L251 LINKER/LOCATER V4.66.93.0                                                        06/25/2023  18:36:41  PAGE 90


      000006BEH   PUBLIC    EDATA    ---       ?PRINTF?BYTE
      00FF5D85H   PUBLIC    CODE     NEAR LAB  PRINTF

      ---         MODULE    ---      ---       ?C?FPGETOPN
      00FF5DB1H   PUBLIC    CODE     ---       ?C?FPGETOPN2
      00FF5DEEH   PUBLIC    CODE     ---       ?C?FPNANRESULT
      00FF5DF6H   PUBLIC    CODE     ---       ?C?FPOVERFLOW
      00FF5DCAH   PUBLIC    CODE     ---       ?C?FPRESULT
      00FF5DE0H   PUBLIC    CODE     ---       ?C?FPRESULT2
      00FF5DF3H   PUBLIC    CODE     ---       ?C?FPUNDERFLOW

      ---         MODULE    ---      ---       ?C?PRNFMT
      00FF5E2FH   PUBLIC    CODE     ---       ?C?PRNFMT

      ---         MODULE    ---      ---       ?C?FPCONVERT
      00FF624CH   PUBLIC    CODE     ---       ?C?FPCONVERT
      00FF6304H   PUBLIC    CODE     ---       ?C?FPROUND

      ---         MODULE    ---      ---       ?C?FTNPWR
      00FF6377H   PUBLIC    CODE     ---       ?C?FTNPWR

      ---         MODULE    ---      ---       ?C_START
      00FF0000H   PUBLIC    CODE     ---       ?C?STARTUP
      00FF0000H   PUBLIC    CODE     ---       ?C_STARTUP

      ---         MODULE    ---      ---       ?C?INITEDATA
      00FF84BDH   PUBLIC    CODE     ---       ?C?INITEDATA

      ---         MODULE    ---      ---       ?C?SIDIV
      00FF63AEH   PUBLIC    CODE     ---       ?C?SIDIV

      ---         MODULE    ---      ---       ?C?LMUL
      00FF63E0H   PUBLIC    CODE     ---       ?C?LMUL

      ---         MODULE    ---      ---       ?C?LIMUL
      00FF63F1H   PUBLIC    CODE     ---       ?C?LIMUL

      ---         MODULE    ---      ---       ?C?ULDIV
      00FF63FCH   PUBLIC    CODE     NEAR LAB  ?C?ULDIV
      00FF63FAH   PUBLIC    CODE     NEAR LAB  ?C?ULIDIV

      ---         MODULE    ---      ---       ?C?SLDIV
      00FF644DH   PUBLIC    CODE     NEAR LAB  ?C?SLDIV

      ---         MODULE    ---      ---       memcpy
      00FF8834H   PUBLIC    CODE     ---       memcpy?_

      ---         MODULE    ---      ---       memset
      00FF8950H   PUBLIC    CODE     ---       memset?_

      ---         MODULE    ---      ---       ?C?INITEDATA_END
      00FF8F63H   PUBLIC    HCONST   WORD      ?C?INITEDATA_END

Program Size: data=8.1 edata+hdata=2298 xdata=60 const=1663 code=35393
L251 RUN COMPLETE.  0 WARNING(S),  0 ERROR(S)
